

Microchip MPLAB XC8 Assembler V2.10 build 88905656 
                                                                                               Fri Feb 12 02:41:38 2021

Microchip MPLAB XC8 C Compiler v2.10 (Free license) build 20190730164152 Og1 
     1                           	processor	16F887
     2                           	opt	pw 120
     3                           	opt	flic
     4                           	psect	strings,global,class=STRING,delta=2
     5                           	psect	cinit,global,class=CODE,merge=1,delta=2
     6                           	psect	bssCOMMON,global,class=COMMON,space=1,delta=1
     7                           	psect	bssBANK0,global,class=BANK0,space=1,delta=1
     8                           	psect	bssBANK1,global,class=BANK1,space=1,delta=1
     9                           	psect	clrtext,global,class=CODE,delta=2
    10                           	psect	cstackCOMMON,global,class=COMMON,space=1,delta=1
    11                           	psect	cstackBANK0,global,class=BANK0,space=1,delta=1
    12                           	psect	maintext,global,class=CODE,split=1,delta=2
    13                           	psect	text1,local,class=CODE,merge=1,delta=2
    14                           	psect	text2,local,class=CODE,merge=1,delta=2
    15                           	psect	text3,local,class=CODE,merge=1,delta=2
    16                           	psect	text4,local,class=CODE,merge=1,delta=2,group=2
    17                           	psect	text5,local,class=CODE,merge=1,delta=2,group=2
    18                           	psect	text6,local,class=CODE,merge=1,delta=2,group=2
    19                           	psect	text7,local,class=CODE,merge=1,delta=2,group=2
    20                           	psect	text8,local,class=CODE,merge=1,delta=2,group=1
    21                           	psect	text9,local,class=CODE,merge=1,delta=2,group=1
    22                           	psect	text10,local,class=CODE,merge=1,delta=2,group=1
    23                           	psect	text11,local,class=CODE,merge=1,delta=2,group=1
    24                           	psect	text12,local,class=CODE,merge=1,delta=2,group=1
    25                           	psect	text13,local,class=CODE,merge=1,delta=2,group=1
    26                           	psect	text14,local,class=CODE,merge=1,delta=2,group=1
    27                           	psect	text15,local,class=CODE,merge=1,delta=2,group=1
    28                           	psect	text16,local,class=CODE,merge=1,delta=2,group=1
    29                           	psect	text17,local,class=CODE,merge=1,delta=2
    30                           	psect	text18,local,class=CODE,merge=1,delta=2
    31                           	psect	text19,local,class=CODE,merge=1,delta=2
    32                           	psect	text20,local,class=CODE,merge=1,delta=2
    33                           	psect	text21,local,class=CODE,merge=1,delta=2
    34                           	psect	text22,local,class=CODE,merge=1,delta=2
    35                           	psect	intentry,global,class=CODE,delta=2
    36                           	dabs	1,0x7E,2
    37  0000                     
    38                           ; Version 2.10
    39                           ; Generated 31/07/2019 GMT
    40                           ; 
    41                           ; Copyright © 2019, Microchip Technology Inc. and its subsidiaries ("Microchip")
    42                           ; All rights reserved.
    43                           ; 
    44                           ; This software is developed by Microchip Technology Inc. and its subsidiaries ("Microch
      +                          ip").
    45                           ; 
    46                           ; Redistribution and use in source and binary forms, with or without modification, are
    47                           ; permitted provided that the following conditions are met:
    48                           ; 
    49                           ;     1. Redistributions of source code must retain the above copyright notice, this lis
      +                          t of
    50                           ;        conditions and the following disclaimer.
    51                           ; 
    52                           ;     2. Redistributions in binary form must reproduce the above copyright notice, this 
      +                          list
    53                           ;        of conditions and the following disclaimer in the documentation and/or other
    54                           ;        materials provided with the distribution.
    55                           ; 
    56                           ;     3. Microchip's name may not be used to endorse or promote products derived from th
      +                          is
    57                           ;        software without specific prior written permission.
    58                           ; 
    59                           ; THIS SOFTWARE IS PROVIDED BY MICROCHIP "AS IS" AND ANY EXPRESS OR IMPLIED WARRANTIES,
    60                           ; INCLUDING, BUT NOT LIMITED TO, THE IMPLIED WARRANTIES OF MERCHANTABILITY AND FITNESS F
      +                          OR
    61                           ; PURPOSE ARE DISCLAIMED.  IN NO EVENT SHALL MICROCHIP BE LIABLE FOR ANY DIRECT, INDIREC
      +                          T,
    62                           ; INCIDENTAL, SPECIAL, EXEMPLARY, OR CONSEQUENTIAL DAMAGES (INCLUDING BUT NOT LIMITED TO
    63                           ; PROCUREMENT OF SUBSTITUTE GOODS OR SERVICES; LOSS OF USE, DATA OR PROFITS; OR BUSINESS
    64                           ; INTERRUPTION) HOWSOEVER CAUSED AND ON ANY THEORY OF LIABILITY, WHETHER IN CONTRACT, ST
      +                          RICT
    65                           ; LIABILITY, OR TORT (INCLUDING NEGLIGENCE OR OTHERWISE) ARISING IN ANY WAY OUT OF THE U
      +                          SE OF
    66                           ; THIS SOFTWARE, EVEN IF ADVISED OF THE POSSIBILITY OF SUCH DAMAGE.
    67                           ; 
    68                           ; 
    69                           ; Code-generator required, PIC16F887 Definitions
    70                           ; 
    71                           ; SFR Addresses
    72  0000                     	;# 
    73  0001                     	;# 
    74  0002                     	;# 
    75  0003                     	;# 
    76  0004                     	;# 
    77  0005                     	;# 
    78  0006                     	;# 
    79  0007                     	;# 
    80  0008                     	;# 
    81  0009                     	;# 
    82  000A                     	;# 
    83  000B                     	;# 
    84  000C                     	;# 
    85  000D                     	;# 
    86  000E                     	;# 
    87  000E                     	;# 
    88  000F                     	;# 
    89  0010                     	;# 
    90  0011                     	;# 
    91  0012                     	;# 
    92  0013                     	;# 
    93  0014                     	;# 
    94  0015                     	;# 
    95  0015                     	;# 
    96  0016                     	;# 
    97  0017                     	;# 
    98  0018                     	;# 
    99  0019                     	;# 
   100  001A                     	;# 
   101  001B                     	;# 
   102  001B                     	;# 
   103  001C                     	;# 
   104  001D                     	;# 
   105  001E                     	;# 
   106  001F                     	;# 
   107  0081                     	;# 
   108  0085                     	;# 
   109  0086                     	;# 
   110  0087                     	;# 
   111  0088                     	;# 
   112  0089                     	;# 
   113  008C                     	;# 
   114  008D                     	;# 
   115  008E                     	;# 
   116  008F                     	;# 
   117  0090                     	;# 
   118  0091                     	;# 
   119  0092                     	;# 
   120  0093                     	;# 
   121  0093                     	;# 
   122  0093                     	;# 
   123  0094                     	;# 
   124  0095                     	;# 
   125  0096                     	;# 
   126  0097                     	;# 
   127  0098                     	;# 
   128  0099                     	;# 
   129  009A                     	;# 
   130  009B                     	;# 
   131  009C                     	;# 
   132  009D                     	;# 
   133  009E                     	;# 
   134  009F                     	;# 
   135  0105                     	;# 
   136  0107                     	;# 
   137  0108                     	;# 
   138  0109                     	;# 
   139  010C                     	;# 
   140  010C                     	;# 
   141  010D                     	;# 
   142  010E                     	;# 
   143  010F                     	;# 
   144  0185                     	;# 
   145  0187                     	;# 
   146  0188                     	;# 
   147  0189                     	;# 
   148  018C                     	;# 
   149  018D                     	;# 
   150  0000                     	;# 
   151  0001                     	;# 
   152  0002                     	;# 
   153  0003                     	;# 
   154  0004                     	;# 
   155  0005                     	;# 
   156  0006                     	;# 
   157  0007                     	;# 
   158  0008                     	;# 
   159  0009                     	;# 
   160  000A                     	;# 
   161  000B                     	;# 
   162  000C                     	;# 
   163  000D                     	;# 
   164  000E                     	;# 
   165  000E                     	;# 
   166  000F                     	;# 
   167  0010                     	;# 
   168  0011                     	;# 
   169  0012                     	;# 
   170  0013                     	;# 
   171  0014                     	;# 
   172  0015                     	;# 
   173  0015                     	;# 
   174  0016                     	;# 
   175  0017                     	;# 
   176  0018                     	;# 
   177  0019                     	;# 
   178  001A                     	;# 
   179  001B                     	;# 
   180  001B                     	;# 
   181  001C                     	;# 
   182  001D                     	;# 
   183  001E                     	;# 
   184  001F                     	;# 
   185  0081                     	;# 
   186  0085                     	;# 
   187  0086                     	;# 
   188  0087                     	;# 
   189  0088                     	;# 
   190  0089                     	;# 
   191  008C                     	;# 
   192  008D                     	;# 
   193  008E                     	;# 
   194  008F                     	;# 
   195  0090                     	;# 
   196  0091                     	;# 
   197  0092                     	;# 
   198  0093                     	;# 
   199  0093                     	;# 
   200  0093                     	;# 
   201  0094                     	;# 
   202  0095                     	;# 
   203  0096                     	;# 
   204  0097                     	;# 
   205  0098                     	;# 
   206  0099                     	;# 
   207  009A                     	;# 
   208  009B                     	;# 
   209  009C                     	;# 
   210  009D                     	;# 
   211  009E                     	;# 
   212  009F                     	;# 
   213  0105                     	;# 
   214  0107                     	;# 
   215  0108                     	;# 
   216  0109                     	;# 
   217  010C                     	;# 
   218  010C                     	;# 
   219  010D                     	;# 
   220  010E                     	;# 
   221  010F                     	;# 
   222  0185                     	;# 
   223  0187                     	;# 
   224  0188                     	;# 
   225  0189                     	;# 
   226  018C                     	;# 
   227  018D                     	;# 
   228  0000                     	;# 
   229  0001                     	;# 
   230  0002                     	;# 
   231  0003                     	;# 
   232  0004                     	;# 
   233  0005                     	;# 
   234  0006                     	;# 
   235  0007                     	;# 
   236  0008                     	;# 
   237  0009                     	;# 
   238  000A                     	;# 
   239  000B                     	;# 
   240  000C                     	;# 
   241  000D                     	;# 
   242  000E                     	;# 
   243  000E                     	;# 
   244  000F                     	;# 
   245  0010                     	;# 
   246  0011                     	;# 
   247  0012                     	;# 
   248  0013                     	;# 
   249  0014                     	;# 
   250  0015                     	;# 
   251  0015                     	;# 
   252  0016                     	;# 
   253  0017                     	;# 
   254  0018                     	;# 
   255  0019                     	;# 
   256  001A                     	;# 
   257  001B                     	;# 
   258  001B                     	;# 
   259  001C                     	;# 
   260  001D                     	;# 
   261  001E                     	;# 
   262  001F                     	;# 
   263  0081                     	;# 
   264  0085                     	;# 
   265  0086                     	;# 
   266  0087                     	;# 
   267  0088                     	;# 
   268  0089                     	;# 
   269  008C                     	;# 
   270  008D                     	;# 
   271  008E                     	;# 
   272  008F                     	;# 
   273  0090                     	;# 
   274  0091                     	;# 
   275  0092                     	;# 
   276  0093                     	;# 
   277  0093                     	;# 
   278  0093                     	;# 
   279  0094                     	;# 
   280  0095                     	;# 
   281  0096                     	;# 
   282  0097                     	;# 
   283  0098                     	;# 
   284  0099                     	;# 
   285  009A                     	;# 
   286  009B                     	;# 
   287  009C                     	;# 
   288  009D                     	;# 
   289  009E                     	;# 
   290  009F                     	;# 
   291  0105                     	;# 
   292  0107                     	;# 
   293  0108                     	;# 
   294  0109                     	;# 
   295  010C                     	;# 
   296  010C                     	;# 
   297  010D                     	;# 
   298  010E                     	;# 
   299  010F                     	;# 
   300  0185                     	;# 
   301  0187                     	;# 
   302  0188                     	;# 
   303  0189                     	;# 
   304  018C                     	;# 
   305  018D                     	;# 
   306  0000                     	;# 
   307  0001                     	;# 
   308  0002                     	;# 
   309  0003                     	;# 
   310  0004                     	;# 
   311  0005                     	;# 
   312  0006                     	;# 
   313  0007                     	;# 
   314  0008                     	;# 
   315  0009                     	;# 
   316  000A                     	;# 
   317  000B                     	;# 
   318  000C                     	;# 
   319  000D                     	;# 
   320  000E                     	;# 
   321  000E                     	;# 
   322  000F                     	;# 
   323  0010                     	;# 
   324  0011                     	;# 
   325  0012                     	;# 
   326  0013                     	;# 
   327  0014                     	;# 
   328  0015                     	;# 
   329  0015                     	;# 
   330  0016                     	;# 
   331  0017                     	;# 
   332  0018                     	;# 
   333  0019                     	;# 
   334  001A                     	;# 
   335  001B                     	;# 
   336  001B                     	;# 
   337  001C                     	;# 
   338  001D                     	;# 
   339  001E                     	;# 
   340  001F                     	;# 
   341  0081                     	;# 
   342  0085                     	;# 
   343  0086                     	;# 
   344  0087                     	;# 
   345  0088                     	;# 
   346  0089                     	;# 
   347  008C                     	;# 
   348  008D                     	;# 
   349  008E                     	;# 
   350  008F                     	;# 
   351  0090                     	;# 
   352  0091                     	;# 
   353  0092                     	;# 
   354  0093                     	;# 
   355  0093                     	;# 
   356  0093                     	;# 
   357  0094                     	;# 
   358  0095                     	;# 
   359  0096                     	;# 
   360  0097                     	;# 
   361  0098                     	;# 
   362  0099                     	;# 
   363  009A                     	;# 
   364  009B                     	;# 
   365  009C                     	;# 
   366  009D                     	;# 
   367  009E                     	;# 
   368  009F                     	;# 
   369  0105                     	;# 
   370  0107                     	;# 
   371  0108                     	;# 
   372  0109                     	;# 
   373  010C                     	;# 
   374  010C                     	;# 
   375  010D                     	;# 
   376  010E                     	;# 
   377  010F                     	;# 
   378  0185                     	;# 
   379  0187                     	;# 
   380  0188                     	;# 
   381  0189                     	;# 
   382  018C                     	;# 
   383  018D                     	;# 
   384  001E                     _ADRESH	set	30
   385  001F                     _ADCON0bits	set	31
   386  0007                     _PORTCbits	set	7
   387  0009                     _PORTE	set	9
   388  0008                     _PORTD	set	8
   389  0007                     _PORTC	set	7
   390  0006                     _PORTB	set	6
   391  0005                     _PORTA	set	5
   392  001A                     _RCREG	set	26
   393  0019                     _TXREG	set	25
   394  000C                     _PIR1bits	set	12
   395  009F                     _ADCON1bits	set	159
   396  008F                     _OSCCONbits	set	143
   397  0089                     _TRISE	set	137
   398  0087                     _TRISC	set	135
   399  0088                     _TRISD	set	136
   400  0086                     _TRISB	set	134
   401  0085                     _TRISA	set	133
   402  0098                     _TXSTAbits	set	152
   403  0189                     _ANSELH	set	393
   404  0188                     _ANSEL	set	392
   405                           
   406                           	psect	strings
   407  0800                     __pstrings:	
   408  0800                     stringtab:	
   409  0800                     __stringtab:	
   410                           
   411                           ;	String table - string pointers are 1 byte each
   412  0800  1BFF               	btfsc	btemp+1,7
   413  0801  280A               	ljmp	stringcode
   414  0802  1383               	bcf	3,7
   415  0803  187F               	btfsc	btemp+1,0
   416  0804  1783               	bsf	3,7
   417  0805  0800               	movf	0,w
   418  0806  0A84               	incf	4,f
   419  0807  1903               	skipnz
   420  0808  0AFF               	incf	btemp+1,f
   421  0809  0008               	return
   422  080A                     stringcode:	
   423  080A                     stringdir:	
   424  080A  3008               	movlw	high stringdir
   425  080B  008A               	movwf	10
   426  080C  0804               	movf	4,w
   427  080D  0A84               	incf	4,f
   428  080E  0782               	addwf	2,f
   429  080F                     __stringbase:	
   430  080F  3400               	retlw	0
   431  0810                     __end_of__stringtab:	
   432  0810                     STR_1:	
   433  0810  3453               	retlw	83	;'S'
   434  0811  3431               	retlw	49	;'1'
   435  0812  3420               	retlw	32	;' '
   436  0813  3420               	retlw	32	;' '
   437  0814  3420               	retlw	32	;' '
   438  0815  3420               	retlw	32	;' '
   439  0816  3420               	retlw	32	;' '
   440  0817  3453               	retlw	83	;'S'
   441  0818  3432               	retlw	50	;'2'
   442  0819  3420               	retlw	32	;' '
   443  081A  3420               	retlw	32	;' '
   444  081B  3420               	retlw	32	;' '
   445  081C  3420               	retlw	32	;' '
   446  081D  3420               	retlw	32	;' '
   447  081E  3453               	retlw	83	;'S'
   448  081F  3433               	retlw	51	;'3'
   449  0820  3400               	retlw	0
   450  0821                     STR_4:	
   451  0821  3456               	retlw	86	;'V'
   452  0822  3420               	retlw	32	;' '
   453  0823  3400               	retlw	0
   454  0824                     STR_2:	
   455  0824  342E               	retlw	46	;'.'
   456  0825  3400               	retlw	0
   457  0821                     
   458                           ; #config settings
   459  0000                     
   460                           	psect	cinit
   461  000F                     start_initialization:	
   462  000F                     __initialization:	
   463                           
   464                           ; Clear objects allocated to COMMON
   465  000F  01FA               	clrf	__pbssCOMMON& (0+127)
   466  0010  01FB               	clrf	(__pbssCOMMON+1)& (0+127)
   467                           
   468                           ; Clear objects allocated to BANK0
   469  0011  1383               	bcf	3,7	;select IRP bank0
   470  0012  305E               	movlw	low __pbssBANK0
   471  0013  0084               	movwf	4
   472  0014  3070               	movlw	low (__pbssBANK0+18)
   473  0015  120A  158A  231E  120A  118A  	fcall	clear_ram0
   474                           
   475                           ; Clear objects allocated to BANK1
   476  001A  30A0               	movlw	low __pbssBANK1
   477  001B  0084               	movwf	4
   478  001C  30D7               	movlw	low (__pbssBANK1+55)
   479  001D  120A  158A  231E  120A  118A  	fcall	clear_ram0
   480  0022                     end_of_initialization:	
   481                           ;End of C runtime variable initialization code
   482                           
   483  0022                     __end_of__initialization:	
   484  0022  0183               	clrf	3
   485  0023  120A  158A  2B59   	ljmp	_main	;jump to C main() function
   486                           
   487                           	psect	bssCOMMON
   488  007A                     __pbssCOMMON:	
   489  007A                     _analogic_digital_b:	
   490  007A                     	ds	1
   491  007B                     _analogic_digital_a:	
   492  007B                     	ds	1
   493                           
   494                           	psect	bssBANK0
   495  005E                     __pbssBANK0:	
   496  005E                     _PI:	
   497  005E                     	ds	2
   498  0060                     _ADC_B:	
   499  0060                     	ds	2
   500  0062                     _ADC_2_B:	
   501  0062                     	ds	2
   502  0064                     _ADC_2_A:	
   503  0064                     	ds	2
   504  0066                     _DC2:	
   505  0066                     	ds	2
   506  0068                     _ADC_A:	
   507  0068                     	ds	2
   508  006A                     _ADC_1_B:	
   509  006A                     	ds	2
   510  006C                     _ADC_1_A:	
   511  006C                     	ds	2
   512  006E                     _DC1:	
   513  006E                     	ds	2
   514                           
   515                           	psect	bssBANK1
   516  00A0                     __pbssBANK1:	
   517  00A0                     _voltageb:	
   518  00A0                     	ds	4
   519  00A4                     _voltage:	
   520  00A4                     	ds	4
   521  00A8                     _plc:	
   522  00A8                     	ds	2
   523  00AA                     _ARDUINO:	
   524  00AA                     	ds	5
   525  00AF                     _POINTERB:	
   526  00AF                     	ds	5
   527  00B4                     _ADCAC_CHARC:	
   528  00B4                     	ds	5
   529  00B9                     _ADCAB_CHARB:	
   530  00B9                     	ds	5
   531  00BE                     _ADCAA_CHARA:	
   532  00BE                     	ds	5
   533  00C3                     _POINTERA:	
   534  00C3                     	ds	5
   535  00C8                     _ADCC_CHARC:	
   536  00C8                     	ds	5
   537  00CD                     _ADCB_CHARB:	
   538  00CD                     	ds	5
   539  00D2                     _ADCA_CHARA:	
   540  00D2                     	ds	5
   541                           
   542                           	psect	clrtext
   543  0B1E                     clear_ram0:	
   544                           ;	Called with FSR containing the base address, and
   545                           ;	W with the last address+1
   546                           
   547  0B1E  0064               	clrwdt	;clear the watchdog before getting into this loop
   548  0B1F                     clrloop0:	
   549  0B1F  0180               	clrf	0	;clear RAM location pointed to by FSR
   550  0B20  0A84               	incf	4,f	;increment pointer
   551  0B21  0604               	xorwf	4,w	;XOR with final address
   552  0B22  1903               	btfsc	3,2	;have we reached the end yet?
   553  0B23  3400               	retlw	0	;all done for this memory range, return
   554  0B24  0604               	xorwf	4,w	;XOR again to restore value
   555  0B25  2B1F               	goto	clrloop0	;do the next byte
   556                           
   557                           	psect	cstackCOMMON
   558  0070                     __pcstackCOMMON:	
   559  0070                     ?_setup:	
   560  0070                     ?_inicio:	
   561                           ; 1 bytes @ 0x0
   562                           
   563  0070                     ?_ADC:	
   564                           ; 1 bytes @ 0x0
   565                           
   566  0070                     ?_LCD_ready:	
   567                           ; 1 bytes @ 0x0
   568                           
   569  0070                     ?_LCD_lat:	
   570                           ; 1 bytes @ 0x0
   571                           
   572  0070                     ?_ISR:	
   573                           ; 1 bytes @ 0x0
   574                           
   575  0070                     ??_ISR:	
   576                           ; 1 bytes @ 0x0
   577                           
   578  0070                     ?_main:	
   579                           ; 1 bytes @ 0x0
   580                           
   581  0070                     ?_LCD_cmd:	
   582                           ; 1 bytes @ 0x0
   583                           
   584  0070                     ?_LCD_dwr:	
   585                           ; 1 bytes @ 0x0
   586                           
   587                           
   588                           ; 1 bytes @ 0x0
   589  0070                     	ds	2
   590  0072                     ??_setup:	
   591  0072                     ??_LCD_ready:	
   592                           ; 1 bytes @ 0x2
   593                           
   594  0072                     ??_LCD_lat:	
   595                           ; 1 bytes @ 0x2
   596                           
   597  0072                     ?_strcat:	
   598                           ; 1 bytes @ 0x2
   599                           
   600  0072                     ?_strcpy:	
   601                           ; 1 bytes @ 0x2
   602                           
   603  0072                     ?__Umul8_16:	
   604                           ; 1 bytes @ 0x2
   605                           
   606  0072                     ?___awdiv:	
   607                           ; 2 bytes @ 0x2
   608                           
   609  0072                     ?___lwdiv:	
   610                           ; 2 bytes @ 0x2
   611                           
   612  0072                     ?___lwmod:	
   613                           ; 2 bytes @ 0x2
   614                           
   615  0072                     ?___xxtofl:	
   616                           ; 2 bytes @ 0x2
   617                           
   618  0072                     strcat@from:	
   619                           ; 4 bytes @ 0x2
   620                           
   621  0072                     strcpy@from:	
   622                           ; 1 bytes @ 0x2
   623                           
   624  0072                     __Umul8_16@multiplicand:	
   625                           ; 1 bytes @ 0x2
   626                           
   627  0072                     ___awdiv@divisor:	
   628                           ; 1 bytes @ 0x2
   629                           
   630  0072                     ___lwdiv@divisor:	
   631                           ; 2 bytes @ 0x2
   632                           
   633  0072                     ___lwmod@divisor:	
   634                           ; 2 bytes @ 0x2
   635                           
   636  0072                     ___xxtofl@val:	
   637                           ; 2 bytes @ 0x2
   638                           
   639                           
   640                           ; 4 bytes @ 0x2
   641  0072                     	ds	1
   642  0073                     ??_strcat:	
   643  0073                     ??_strcpy:	
   644                           ; 1 bytes @ 0x3
   645                           
   646                           
   647                           ; 1 bytes @ 0x3
   648  0073                     	ds	1
   649  0074                     ??__Umul8_16:	
   650  0074                     ??_LCD_cmd:	
   651                           ; 1 bytes @ 0x4
   652                           
   653  0074                     ??_LCD_dwr:	
   654                           ; 1 bytes @ 0x4
   655                           
   656  0074                     LCD_cmd@x:	
   657                           ; 1 bytes @ 0x4
   658                           
   659  0074                     LCD_dwr@x:	
   660                           ; 1 bytes @ 0x4
   661                           
   662  0074                     strcat@cp:	
   663                           ; 1 bytes @ 0x4
   664                           
   665  0074                     strcpy@cp:	
   666                           ; 1 bytes @ 0x4
   667                           
   668  0074                     ___awdiv@dividend:	
   669                           ; 1 bytes @ 0x4
   670                           
   671  0074                     ___lwdiv@dividend:	
   672                           ; 2 bytes @ 0x4
   673                           
   674  0074                     ___lwmod@dividend:	
   675                           ; 2 bytes @ 0x4
   676                           
   677                           
   678                           ; 2 bytes @ 0x4
   679  0074                     	ds	1
   680  0075                     ??_inicio:	
   681  0075                     ?_LCD_msg:	
   682                           ; 1 bytes @ 0x5
   683                           
   684  0075                     strcat@to:	
   685                           ; 1 bytes @ 0x5
   686                           
   687  0075                     strcpy@to:	
   688                           ; 1 bytes @ 0x5
   689                           
   690  0075                     LCD_msg@c:	
   691                           ; 1 bytes @ 0x5
   692                           
   693                           
   694                           ; 2 bytes @ 0x5
   695  0075                     	ds	1
   696  0076                     ??___awdiv:	
   697  0076                     ??___lwdiv:	
   698                           ; 1 bytes @ 0x6
   699                           
   700  0076                     ??___lwmod:	
   701                           ; 1 bytes @ 0x6
   702                           
   703  0076                     ??___xxtofl:	
   704                           ; 1 bytes @ 0x6
   705                           
   706                           
   707                           ; 1 bytes @ 0x6
   708  0076                     	ds	1
   709  0077                     ??_LCD_msg:	
   710  0077                     ??___awmod:	
   711                           ; 1 bytes @ 0x7
   712                           
   713  0077                     ___lwmod@counter:	
   714                           ; 1 bytes @ 0x7
   715                           
   716  0077                     ___lwdiv@quotient:	
   717                           ; 1 bytes @ 0x7
   718                           
   719                           
   720                           ; 2 bytes @ 0x7
   721  0077                     	ds	1
   722  0078                     ___awmod@counter:	
   723                           
   724                           ; 1 bytes @ 0x8
   725  0078                     	ds	1
   726  0079                     ___awmod@sign:	
   727  0079                     ___lwdiv@counter:	
   728                           ; 1 bytes @ 0x9
   729                           
   730                           
   731                           ; 1 bytes @ 0x9
   732  0079                     	ds	1
   733  007A                     ??_main:	
   734                           
   735                           	psect	cstackBANK0
   736  0020                     __pcstackBANK0:	
   737                           ; 1 bytes @ 0xA
   738                           
   739  0020                     ?_utoa:	
   740  0020                     ___awdiv@counter:	
   741                           ; 1 bytes @ 0x0
   742                           
   743  0020                     ___xxtofl@sign:	
   744                           ; 1 bytes @ 0x0
   745                           
   746  0020                     utoa@val:	
   747                           ; 1 bytes @ 0x0
   748                           
   749  0020                     __Umul8_16@product:	
   750                           ; 2 bytes @ 0x0
   751                           
   752                           
   753                           ; 2 bytes @ 0x0
   754  0020                     	ds	1
   755  0021                     ___awdiv@sign:	
   756  0021                     ___xxtofl@exp:	
   757                           ; 1 bytes @ 0x1
   758                           
   759                           
   760                           ; 1 bytes @ 0x1
   761  0021                     	ds	1
   762  0022                     ___awdiv@quotient:	
   763  0022                     utoa@base:	
   764                           ; 2 bytes @ 0x2
   765                           
   766  0022                     __Umul8_16@word_mpld:	
   767                           ; 2 bytes @ 0x2
   768                           
   769  0022                     ___xxtofl@arg:	
   770                           ; 2 bytes @ 0x2
   771                           
   772                           
   773                           ; 4 bytes @ 0x2
   774  0022                     	ds	2
   775  0024                     ??_utoa:	
   776  0024                     ?___awmod:	
   777                           ; 1 bytes @ 0x4
   778                           
   779  0024                     __Umul8_16@multiplier:	
   780                           ; 2 bytes @ 0x4
   781                           
   782  0024                     ___awmod@divisor:	
   783                           ; 1 bytes @ 0x4
   784                           
   785                           
   786                           ; 2 bytes @ 0x4
   787  0024                     	ds	1
   788  0025                     utoa@v:	
   789                           
   790                           ; 2 bytes @ 0x5
   791  0025                     	ds	1
   792  0026                     ?___flmul:	
   793  0026                     ___awmod@dividend:	
   794                           ; 4 bytes @ 0x6
   795                           
   796  0026                     ___flmul@b:	
   797                           ; 2 bytes @ 0x6
   798                           
   799                           
   800                           ; 4 bytes @ 0x6
   801  0026                     	ds	1
   802  0027                     utoa@c:	
   803                           
   804                           ; 1 bytes @ 0x7
   805  0027                     	ds	1
   806  0028                     utoa@buf:	
   807                           
   808                           ; 1 bytes @ 0x8
   809  0028                     	ds	1
   810  0029                     ?_itoa:	
   811  0029                     itoa@val:	
   812                           ; 1 bytes @ 0x9
   813                           
   814                           
   815                           ; 2 bytes @ 0x9
   816  0029                     	ds	1
   817  002A                     ___flmul@a:	
   818                           
   819                           ; 4 bytes @ 0xA
   820  002A                     	ds	1
   821  002B                     itoa@base:	
   822                           
   823                           ; 2 bytes @ 0xB
   824  002B                     	ds	2
   825  002D                     ??_itoa:	
   826                           
   827                           ; 1 bytes @ 0xD
   828  002D                     	ds	1
   829  002E                     ??___flmul:	
   830                           
   831                           ; 1 bytes @ 0xE
   832  002E                     	ds	1
   833  002F                     itoa@buf:	
   834                           
   835                           ; 1 bytes @ 0xF
   836  002F                     	ds	4
   837  0033                     ___flmul@sign:	
   838                           
   839                           ; 1 bytes @ 0x13
   840  0033                     	ds	1
   841  0034                     ___flmul@aexp:	
   842                           
   843                           ; 1 bytes @ 0x14
   844  0034                     	ds	1
   845  0035                     ___flmul@grs:	
   846                           
   847                           ; 4 bytes @ 0x15
   848  0035                     	ds	4
   849  0039                     ___flmul@bexp:	
   850                           
   851                           ; 1 bytes @ 0x19
   852  0039                     	ds	1
   853  003A                     ___flmul@prod:	
   854                           
   855                           ; 4 bytes @ 0x1A
   856  003A                     	ds	4
   857  003E                     ___flmul@temp:	
   858                           
   859                           ; 2 bytes @ 0x1E
   860  003E                     	ds	2
   861  0040                     ?___fltol:	
   862  0040                     ?___fldiv:	
   863                           ; 4 bytes @ 0x20
   864                           
   865  0040                     ___fltol@f1:	
   866                           ; 4 bytes @ 0x20
   867                           
   868  0040                     ___fldiv@a:	
   869                           ; 4 bytes @ 0x20
   870                           
   871                           
   872                           ; 4 bytes @ 0x20
   873  0040                     	ds	4
   874  0044                     ??___fltol:	
   875  0044                     ___fldiv@b:	
   876                           ; 1 bytes @ 0x24
   877                           
   878                           
   879                           ; 4 bytes @ 0x24
   880  0044                     	ds	4
   881  0048                     ??___fldiv:	
   882                           
   883                           ; 1 bytes @ 0x28
   884  0048                     	ds	1
   885  0049                     ___fltol@sign1:	
   886                           
   887                           ; 1 bytes @ 0x29
   888  0049                     	ds	1
   889  004A                     ___fltol@exp1:	
   890                           
   891                           ; 1 bytes @ 0x2A
   892  004A                     	ds	3
   893  004D                     ___fldiv@rem:	
   894                           
   895                           ; 4 bytes @ 0x2D
   896  004D                     	ds	4
   897  0051                     ___fldiv@sign:	
   898                           
   899                           ; 1 bytes @ 0x31
   900  0051                     	ds	1
   901  0052                     ___fldiv@new_exp:	
   902                           
   903                           ; 2 bytes @ 0x32
   904  0052                     	ds	2
   905  0054                     ___fldiv@grs:	
   906                           
   907                           ; 4 bytes @ 0x34
   908  0054                     	ds	4
   909  0058                     ___fldiv@bexp:	
   910                           
   911                           ; 1 bytes @ 0x38
   912  0058                     	ds	1
   913  0059                     ___fldiv@aexp:	
   914                           
   915                           ; 1 bytes @ 0x39
   916  0059                     	ds	1
   917  005A                     ??_ADC:	
   918                           
   919                           ; 1 bytes @ 0x3A
   920  005A                     	ds	4
   921                           
   922                           	psect	maintext
   923  0B59                     __pmaintext:	
   924 ;;
   925 ;;Main: autosize = 0, tempsize = 0, incstack = 0, save=0
   926 ;;
   927 ;; *************** function _main *****************
   928 ;; Defined at:
   929 ;;		line 81 in file "main.c"
   930 ;; Parameters:    Size  Location     Type
   931 ;;		None
   932 ;; Auto vars:     Size  Location     Type
   933 ;;		None
   934 ;; Return value:  Size  Location     Type
   935 ;;                  1    wreg      void 
   936 ;; Registers used:
   937 ;;		wreg, fsr0l, fsr0h, status,2, status,0, btemp+1, pclath, cstack
   938 ;; Tracked objects:
   939 ;;		On entry : B00/0
   940 ;;		On exit  : 0/0
   941 ;;		Unchanged: 0/0
   942 ;; Data sizes:     COMMON   BANK0   BANK1   BANK3   BANK2
   943 ;;      Params:         0       0       0       0       0
   944 ;;      Locals:         0       0       0       0       0
   945 ;;      Temps:          0       0       0       0       0
   946 ;;      Totals:         0       0       0       0       0
   947 ;;Total ram usage:        0 bytes
   948 ;; Hardware stack levels required when called:    5
   949 ;; This function calls:
   950 ;;		_ADC
   951 ;;		_inicio
   952 ;;		_setup
   953 ;; This function is called by:
   954 ;;		Startup code after reset
   955 ;; This function uses a non-reentrant model
   956 ;;
   957                           
   958                           
   959                           ;psect for function _main
   960  0B59                     _main:	
   961  0B59                     l2634:	
   962                           ;incstack = 0
   963                           ; Regs used in _main: [wreg-fsr0h+status,2+status,0+btemp+1+pclath+cstack]
   964                           
   965                           
   966                           ;main.c: 83:     setup ();
   967  0B59  120A  158A  23A2  120A  158A  	fcall	_setup
   968  0B5E                     l54:	
   969                           ;main.c: 87:     while (1) {
   970                           
   971                           
   972                           ;main.c: 88:         inicio();
   973  0B5E  120A  158A  2383  120A  158A  	fcall	_inicio
   974  0B63                     l2636:	
   975                           
   976                           ;main.c: 89:         ADC();
   977  0B63  120A  118A  2387  120A  158A  	fcall	_ADC
   978  0B68  2B5E               	goto	l54
   979  0B69  120A  118A  280C   	ljmp	start
   980  0B6C                     __end_of_main:	
   981                           
   982                           	psect	text1
   983  0BA2                     __ptext1:	
   984 ;; *************** function _setup *****************
   985 ;; Defined at:
   986 ;;		line 97 in file "main.c"
   987 ;; Parameters:    Size  Location     Type
   988 ;;		None
   989 ;; Auto vars:     Size  Location     Type
   990 ;;		None
   991 ;; Return value:  Size  Location     Type
   992 ;;                  1    wreg      void 
   993 ;; Registers used:
   994 ;;		wreg, status,2, status,0
   995 ;; Tracked objects:
   996 ;;		On entry : 0/0
   997 ;;		On exit  : 0/0
   998 ;;		Unchanged: 0/0
   999 ;; Data sizes:     COMMON   BANK0   BANK1   BANK3   BANK2
  1000 ;;      Params:         0       0       0       0       0
  1001 ;;      Locals:         0       0       0       0       0
  1002 ;;      Temps:          0       0       0       0       0
  1003 ;;      Totals:         0       0       0       0       0
  1004 ;;Total ram usage:        0 bytes
  1005 ;; Hardware stack levels used:    1
  1006 ;; Hardware stack levels required when called:    1
  1007 ;; This function calls:
  1008 ;;		Nothing
  1009 ;; This function is called by:
  1010 ;;		_main
  1011 ;; This function uses a non-reentrant model
  1012 ;;
  1013                           
  1014                           
  1015                           ;psect for function _setup
  1016  0BA2                     _setup:	
  1017  0BA2                     l1416:	
  1018                           ;incstack = 0
  1019                           ; Regs used in _setup: [wreg+status,2+status,0]
  1020                           
  1021                           
  1022                           ;main.c: 99:     ANSEL = 0b00000011;
  1023  0BA2  3003               	movlw	3
  1024  0BA3  1683               	bsf	3,5	;RP0=1, select bank3
  1025  0BA4  1703               	bsf	3,6	;RP1=1, select bank3
  1026  0BA5  0088               	movwf	8	;volatile
  1027  0BA6                     l1418:	
  1028                           
  1029                           ;main.c: 100:     ANSELH= 0b00000000;
  1030  0BA6  0189               	clrf	9	;volatile
  1031  0BA7                     l1420:	
  1032                           
  1033                           ;main.c: 101:     TRISA = 0b00000011;
  1034  0BA7  3003               	movlw	3
  1035  0BA8  1683               	bsf	3,5	;RP0=1, select bank1
  1036  0BA9  1303               	bcf	3,6	;RP1=0, select bank1
  1037  0BAA  0085               	movwf	5	;volatile
  1038                           
  1039                           ;main.c: 102:     TRISB = 0b00000000;
  1040  0BAB  0186               	clrf	6	;volatile
  1041                           
  1042                           ;main.c: 103:     TRISD = 0b00000000;
  1043  0BAC  0188               	clrf	8	;volatile
  1044                           
  1045                           ;main.c: 104:     TRISC = 0b00000000;
  1046  0BAD  0187               	clrf	7	;volatile
  1047                           
  1048                           ;main.c: 105:     TRISE = 0;
  1049  0BAE  0189               	clrf	9	;volatile
  1050                           
  1051                           ;main.c: 107:     PORTA = 0;
  1052  0BAF  1283               	bcf	3,5	;RP0=0, select bank0
  1053  0BB0  1303               	bcf	3,6	;RP1=0, select bank0
  1054  0BB1  0185               	clrf	5	;volatile
  1055                           
  1056                           ;main.c: 108:     PORTB = 0;
  1057  0BB2  0186               	clrf	6	;volatile
  1058                           
  1059                           ;main.c: 109:     PORTC = 0;
  1060  0BB3  0187               	clrf	7	;volatile
  1061                           
  1062                           ;main.c: 110:     PORTD = 0;
  1063  0BB4  0188               	clrf	8	;volatile
  1064                           
  1065                           ;main.c: 111:     PORTE = 0;
  1066  0BB5  0189               	clrf	9	;volatile
  1067  0BB6                     l1422:	
  1068                           
  1069                           ;main.c: 113:     OSCCONbits.IRCF = 0b110;
  1070  0BB6  1683               	bsf	3,5	;RP0=1, select bank1
  1071  0BB7  1303               	bcf	3,6	;RP1=0, select bank1
  1072  0BB8  080F               	movf	15,w	;volatile
  1073  0BB9  398F               	andlw	-113
  1074  0BBA  3860               	iorlw	96
  1075  0BBB  008F               	movwf	15	;volatile
  1076  0BBC                     l1424:	
  1077                           
  1078                           ;main.c: 114:     OSCCONbits.OSTS= 0;
  1079  0BBC  118F               	bcf	15,3	;volatile
  1080  0BBD                     l1426:	
  1081                           
  1082                           ;main.c: 115:     OSCCONbits.HTS = 0;
  1083  0BBD  110F               	bcf	15,2	;volatile
  1084  0BBE                     l1428:	
  1085                           
  1086                           ;main.c: 116:     OSCCONbits.LTS = 0;
  1087  0BBE  108F               	bcf	15,1	;volatile
  1088  0BBF                     l1430:	
  1089                           
  1090                           ;main.c: 117:     OSCCONbits.SCS = 1;
  1091  0BBF  140F               	bsf	15,0	;volatile
  1092  0BC0                     l60:	
  1093  0BC0  0008               	return
  1094  0BC1                     __end_of_setup:	
  1095                           
  1096                           	psect	text2
  1097  0B83                     __ptext2:	
  1098 ;; *************** function _inicio *****************
  1099 ;; Defined at:
  1100 ;;		line 59 in file "LCD.c"
  1101 ;; Parameters:    Size  Location     Type
  1102 ;;		None
  1103 ;; Auto vars:     Size  Location     Type
  1104 ;;		None
  1105 ;; Return value:  Size  Location     Type
  1106 ;;                  1    wreg      void 
  1107 ;; Registers used:
  1108 ;;		wreg, status,2, status,0, pclath, cstack
  1109 ;; Tracked objects:
  1110 ;;		On entry : 0/0
  1111 ;;		On exit  : 0/0
  1112 ;;		Unchanged: 0/0
  1113 ;; Data sizes:     COMMON   BANK0   BANK1   BANK3   BANK2
  1114 ;;      Params:         0       0       0       0       0
  1115 ;;      Locals:         0       0       0       0       0
  1116 ;;      Temps:          0       0       0       0       0
  1117 ;;      Totals:         0       0       0       0       0
  1118 ;;Total ram usage:        0 bytes
  1119 ;; Hardware stack levels used:    1
  1120 ;; Hardware stack levels required when called:    3
  1121 ;; This function calls:
  1122 ;;		_LCD_cmd
  1123 ;; This function is called by:
  1124 ;;		_main
  1125 ;; This function uses a non-reentrant model
  1126 ;;
  1127                           
  1128                           
  1129                           ;psect for function _inicio
  1130  0B83                     _inicio:	
  1131  0B83                     l2160:	
  1132                           ;incstack = 0
  1133                           ; Regs used in _inicio: [wreg+status,2+status,0+pclath+cstack]
  1134                           
  1135                           
  1136                           ;LCD.c: 60:     LCD_cmd(0x38);
  1137  0B83  3038               	movlw	56
  1138  0B84  120A  158A  2335  120A  158A  	fcall	_LCD_cmd
  1139                           
  1140                           ;LCD.c: 61:     LCD_cmd(0x0C);
  1141  0B89  300C               	movlw	12
  1142  0B8A  120A  158A  2335  120A  158A  	fcall	_LCD_cmd
  1143                           
  1144                           ;LCD.c: 62:     LCD_cmd(0x01);
  1145  0B8F  3001               	movlw	1
  1146  0B90  120A  158A  2335  120A  158A  	fcall	_LCD_cmd
  1147                           
  1148                           ;LCD.c: 63:     LCD_cmd(0x06);
  1149  0B95  3006               	movlw	6
  1150  0B96  120A  158A  2335  120A  158A  	fcall	_LCD_cmd
  1151                           
  1152                           ;LCD.c: 64:     LCD_cmd(0x80);
  1153  0B9B  3080               	movlw	128
  1154  0B9C  120A  158A  2335  120A  158A  	fcall	_LCD_cmd
  1155  0BA1                     l93:	
  1156  0BA1  0008               	return
  1157  0BA2                     __end_of_inicio:	
  1158                           
  1159                           	psect	text3
  1160  0387                     __ptext3:	
  1161 ;; *************** function _ADC *****************
  1162 ;; Defined at:
  1163 ;;		line 61 in file "adc.c"
  1164 ;; Parameters:    Size  Location     Type
  1165 ;;		None
  1166 ;; Auto vars:     Size  Location     Type
  1167 ;;		None
  1168 ;; Return value:  Size  Location     Type
  1169 ;;                  1    wreg      void 
  1170 ;; Registers used:
  1171 ;;		wreg, fsr0l, fsr0h, status,2, status,0, btemp+1, pclath, cstack
  1172 ;; Tracked objects:
  1173 ;;		On entry : 0/0
  1174 ;;		On exit  : 0/0
  1175 ;;		Unchanged: 0/0
  1176 ;; Data sizes:     COMMON   BANK0   BANK1   BANK3   BANK2
  1177 ;;      Params:         0       0       0       0       0
  1178 ;;      Locals:         0       0       0       0       0
  1179 ;;      Temps:          0       4       0       0       0
  1180 ;;      Totals:         0       4       0       0       0
  1181 ;;Total ram usage:        4 bytes
  1182 ;; Hardware stack levels used:    1
  1183 ;; Hardware stack levels required when called:    4
  1184 ;; This function calls:
  1185 ;;		_LCD_cmd
  1186 ;;		_LCD_msg
  1187 ;;		___awdiv
  1188 ;;		___awmod
  1189 ;;		___fldiv
  1190 ;;		___flmul
  1191 ;;		___fltol
  1192 ;;		___xxtofl
  1193 ;;		_itoa
  1194 ;;		_strcat
  1195 ;;		_strcpy
  1196 ;; This function is called by:
  1197 ;;		_main
  1198 ;; This function uses a non-reentrant model
  1199 ;;
  1200                           
  1201                           
  1202                           ;psect for function _ADC
  1203  0387                     _ADC:	
  1204  0387                     l163:	
  1205                           ;incstack = 0
  1206                           ; Regs used in _ADC: [wreg-fsr0h+status,2+status,0+btemp+1+pclath+cstack]
  1207                           ;adc.c: 62:     while(1){
  1208                           
  1209  0387                     l2542:	
  1210                           
  1211                           ;adc.c: 63:     ADCON0bits.ADCS = 01;
  1212  0387  1283               	bcf	3,5	;RP0=0, select bank0
  1213  0388  1303               	bcf	3,6	;RP1=0, select bank0
  1214  0389  081F               	movf	31,w	;volatile
  1215  038A  393F               	andlw	-193
  1216  038B  3840               	iorlw	64
  1217  038C  009F               	movwf	31	;volatile
  1218  038D                     l2544:	
  1219                           
  1220                           ;adc.c: 64:     ADCON0bits.ADON = 1;
  1221  038D  141F               	bsf	31,0	;volatile
  1222  038E                     l2546:	
  1223                           
  1224                           ;adc.c: 65:     ADCON1bits.ADFM = 0;
  1225  038E  1683               	bsf	3,5	;RP0=1, select bank1
  1226  038F  1303               	bcf	3,6	;RP1=0, select bank1
  1227  0390  139F               	bcf	31,7	;volatile
  1228  0391                     l2548:	
  1229                           
  1230                           ;adc.c: 66:     ADCON1bits.VCFG0 = 0;
  1231  0391  121F               	bcf	31,4	;volatile
  1232  0392                     l2550:	
  1233                           
  1234                           ;adc.c: 67:     ADCON1bits.VCFG1 = 0;
  1235  0392  129F               	bcf	31,5	;volatile
  1236  0393                     l2552:	
  1237                           
  1238                           ;adc.c: 68:     LCD_msg("S1     S2     S3");
  1239  0393  3001               	movlw	(low ((STR_1-__stringbase)| (0+32768)))& (0+255)
  1240  0394  00F5               	movwf	LCD_msg@c
  1241  0395  3080               	movlw	128
  1242  0396  00F6               	movwf	LCD_msg@c+1
  1243  0397  120A  158A  23E2  120A  118A  	fcall	_LCD_msg
  1244  039C                     l2554:	
  1245                           
  1246                           ;adc.c: 70:         _delay((unsigned long)((1)*(4000000/4000.0)));
  1247  039C  30C7               	movlw	199
  1248  039D  1283               	bcf	3,5	;RP0=0, select bank0
  1249  039E  1303               	bcf	3,6	;RP1=0, select bank0
  1250  039F  00DA               	movwf	??_ADC
  1251  03A0                     u3407:	
  1252  03A0  2BA1               	nop2
  1253  03A1  0BDA               	decfsz	??_ADC,f
  1254  03A2  2BA0               	goto	u3407
  1255  03A3  2BA4               	nop2
  1256  03A4                     l2556:	
  1257                           
  1258                           ;adc.c: 71:         ADCON0bits.CHS = 0000;
  1259  03A4  30C3               	movlw	-61
  1260  03A5  1283               	bcf	3,5	;RP0=0, select bank0
  1261  03A6  1303               	bcf	3,6	;RP1=0, select bank0
  1262  03A7  059F               	andwf	31,f	;volatile
  1263  03A8                     l2558:	
  1264                           
  1265                           ;adc.c: 72:         ADCON0bits.ADON = 1;
  1266  03A8  141F               	bsf	31,0	;volatile
  1267  03A9                     l2560:	
  1268                           
  1269                           ;adc.c: 73:         ADCON0bits.GO = 1;
  1270  03A9  149F               	bsf	31,1	;volatile
  1271  03AA                     l165:	
  1272                           ;adc.c: 74:         while(ADCON0bits.GO);
  1273                           
  1274  03AA  189F               	btfsc	31,1	;volatile
  1275  03AB  2BAD               	goto	u3381
  1276  03AC  2BAE               	goto	u3380
  1277  03AD                     u3381:	
  1278  03AD  2BAA               	goto	l165
  1279  03AE                     u3380:	
  1280  03AE                     l2562:	
  1281                           
  1282                           ;adc.c: 75:         analogic_digital_a = ADRESH;
  1283  03AE  081E               	movf	30,w	;volatile
  1284  03AF  00DA               	movwf	??_ADC
  1285  03B0  085A               	movf	??_ADC,w
  1286  03B1  00FB               	movwf	_analogic_digital_a
  1287  03B2                     l2564:	
  1288                           
  1289                           ;adc.c: 76:         voltage = (analogic_digital_a*5.0)/255.0;
  1290  03B2  3043               	movlw	67
  1291  03B3  00C3               	movwf	___fldiv@a+3
  1292  03B4  307F               	movlw	127
  1293  03B5  00C2               	movwf	___fldiv@a+2
  1294  03B6  3000               	movlw	0
  1295  03B7  00C1               	movwf	___fldiv@a+1
  1296  03B8  3000               	movlw	0
  1297  03B9  00C0               	movwf	___fldiv@a
  1298  03BA  3040               	movlw	64
  1299  03BB  00A9               	movwf	___flmul@b+3
  1300  03BC  30A0               	movlw	160
  1301  03BD  00A8               	movwf	___flmul@b+2
  1302  03BE  3000               	movlw	0
  1303  03BF  00A7               	movwf	___flmul@b+1
  1304  03C0  3000               	movlw	0
  1305  03C1  00A6               	movwf	___flmul@b
  1306  03C2  087B               	movf	_analogic_digital_a,w
  1307  03C3  00DA               	movwf	??_ADC
  1308  03C4  01DB               	clrf	??_ADC+1
  1309  03C5  01DC               	clrf	??_ADC+2
  1310  03C6  01DD               	clrf	??_ADC+3
  1311  03C7  085D               	movf	??_ADC+3,w
  1312  03C8  00F5               	movwf	___xxtofl@val+3
  1313  03C9  085C               	movf	??_ADC+2,w
  1314  03CA  00F4               	movwf	___xxtofl@val+2
  1315  03CB  085B               	movf	??_ADC+1,w
  1316  03CC  00F3               	movwf	___xxtofl@val+1
  1317  03CD  085A               	movf	??_ADC,w
  1318  03CE  00F2               	movwf	___xxtofl@val
  1319  03CF  3001               	movlw	1
  1320  03D0  120A  118A  2689  120A  118A  	fcall	___xxtofl
  1321  03D5  0875               	movf	?___xxtofl+3,w
  1322  03D6  1283               	bcf	3,5	;RP0=0, select bank0
  1323  03D7  1303               	bcf	3,6	;RP1=0, select bank0
  1324  03D8  00AD               	movwf	___flmul@a+3
  1325  03D9  0874               	movf	?___xxtofl+2,w
  1326  03DA  00AC               	movwf	___flmul@a+2
  1327  03DB  0873               	movf	?___xxtofl+1,w
  1328  03DC  00AB               	movwf	___flmul@a+1
  1329  03DD  0872               	movf	?___xxtofl,w
  1330  03DE  00AA               	movwf	___flmul@a
  1331  03DF  120A  118A  2026  120A  118A  	fcall	___flmul
  1332  03E4  1283               	bcf	3,5	;RP0=0, select bank0
  1333  03E5  1303               	bcf	3,6	;RP1=0, select bank0
  1334  03E6  0829               	movf	?___flmul+3,w
  1335  03E7  00C7               	movwf	___fldiv@b+3
  1336  03E8  0828               	movf	?___flmul+2,w
  1337  03E9  00C6               	movwf	___fldiv@b+2
  1338  03EA  0827               	movf	?___flmul+1,w
  1339  03EB  00C5               	movwf	___fldiv@b+1
  1340  03EC  0826               	movf	?___flmul,w
  1341  03ED  00C4               	movwf	___fldiv@b
  1342  03EE  120A  158A  2623  120A  118A  	fcall	___fldiv
  1343  03F3  1283               	bcf	3,5	;RP0=0, select bank0
  1344  03F4  1303               	bcf	3,6	;RP1=0, select bank0
  1345  03F5  0843               	movf	?___fldiv+3,w
  1346  03F6  1683               	bsf	3,5	;RP0=1, select bank1
  1347  03F7  1303               	bcf	3,6	;RP1=0, select bank1
  1348  03F8  00A7               	movwf	(_voltage+3)^(0+128)
  1349  03F9  1283               	bcf	3,5	;RP0=0, select bank0
  1350  03FA  1303               	bcf	3,6	;RP1=0, select bank0
  1351  03FB  0842               	movf	?___fldiv+2,w
  1352  03FC  1683               	bsf	3,5	;RP0=1, select bank1
  1353  03FD  1303               	bcf	3,6	;RP1=0, select bank1
  1354  03FE  00A6               	movwf	(_voltage+2)^(0+128)
  1355  03FF  1283               	bcf	3,5	;RP0=0, select bank0
  1356  0400  1303               	bcf	3,6	;RP1=0, select bank0
  1357  0401  0841               	movf	?___fldiv+1,w
  1358  0402  1683               	bsf	3,5	;RP0=1, select bank1
  1359  0403  1303               	bcf	3,6	;RP1=0, select bank1
  1360  0404  00A5               	movwf	(_voltage+1)^(0+128)
  1361  0405  1283               	bcf	3,5	;RP0=0, select bank0
  1362  0406  1303               	bcf	3,6	;RP1=0, select bank0
  1363  0407  0840               	movf	?___fldiv,w
  1364  0408  1683               	bsf	3,5	;RP0=1, select bank1
  1365  0409  1303               	bcf	3,6	;RP1=0, select bank1
  1366  040A  00A4               	movwf	_voltage^(0+128)
  1367  040B                     l2566:	
  1368                           
  1369                           ;adc.c: 77:         DC1 = (voltage)*100;
  1370  040B  0827               	movf	(_voltage+3)^(0+128),w
  1371  040C  1283               	bcf	3,5	;RP0=0, select bank0
  1372  040D  1303               	bcf	3,6	;RP1=0, select bank0
  1373  040E  00AD               	movwf	___flmul@a+3
  1374  040F  1683               	bsf	3,5	;RP0=1, select bank1
  1375  0410  1303               	bcf	3,6	;RP1=0, select bank1
  1376  0411  0826               	movf	(_voltage+2)^(0+128),w
  1377  0412  1283               	bcf	3,5	;RP0=0, select bank0
  1378  0413  1303               	bcf	3,6	;RP1=0, select bank0
  1379  0414  00AC               	movwf	___flmul@a+2
  1380  0415  1683               	bsf	3,5	;RP0=1, select bank1
  1381  0416  1303               	bcf	3,6	;RP1=0, select bank1
  1382  0417  0825               	movf	(_voltage+1)^(0+128),w
  1383  0418  1283               	bcf	3,5	;RP0=0, select bank0
  1384  0419  1303               	bcf	3,6	;RP1=0, select bank0
  1385  041A  00AB               	movwf	___flmul@a+1
  1386  041B  1683               	bsf	3,5	;RP0=1, select bank1
  1387  041C  1303               	bcf	3,6	;RP1=0, select bank1
  1388  041D  0824               	movf	_voltage^(0+128),w
  1389  041E  1283               	bcf	3,5	;RP0=0, select bank0
  1390  041F  1303               	bcf	3,6	;RP1=0, select bank0
  1391  0420  00AA               	movwf	___flmul@a
  1392  0421  3042               	movlw	66
  1393  0422  00A9               	movwf	___flmul@b+3
  1394  0423  30C8               	movlw	200
  1395  0424  00A8               	movwf	___flmul@b+2
  1396  0425  3000               	movlw	0
  1397  0426  00A7               	movwf	___flmul@b+1
  1398  0427  3000               	movlw	0
  1399  0428  00A6               	movwf	___flmul@b
  1400  0429  120A  118A  2026  120A  118A  	fcall	___flmul
  1401  042E  1283               	bcf	3,5	;RP0=0, select bank0
  1402  042F  1303               	bcf	3,6	;RP1=0, select bank0
  1403  0430  0829               	movf	?___flmul+3,w
  1404  0431  00C3               	movwf	___fltol@f1+3
  1405  0432  0828               	movf	?___flmul+2,w
  1406  0433  00C2               	movwf	___fltol@f1+2
  1407  0434  0827               	movf	?___flmul+1,w
  1408  0435  00C1               	movwf	___fltol@f1+1
  1409  0436  0826               	movf	?___flmul,w
  1410  0437  00C0               	movwf	___fltol@f1
  1411  0438  120A  118A  2745  120A  118A  	fcall	___fltol
  1412  043D  1283               	bcf	3,5	;RP0=0, select bank0
  1413  043E  1303               	bcf	3,6	;RP1=0, select bank0
  1414  043F  0841               	movf	?___fltol+1,w
  1415  0440  00EF               	movwf	_DC1+1
  1416  0441  0840               	movf	?___fltol,w
  1417  0442  00EE               	movwf	_DC1
  1418  0443                     l2568:	
  1419                           
  1420                           ;adc.c: 78:         ADC_1_A = DC1%10;
  1421  0443  300A               	movlw	10
  1422  0444  00A4               	movwf	___awmod@divisor
  1423  0445  3000               	movlw	0
  1424  0446  00A5               	movwf	___awmod@divisor+1
  1425  0447  086F               	movf	_DC1+1,w
  1426  0448  00A7               	movwf	___awmod@dividend+1
  1427  0449  086E               	movf	_DC1,w
  1428  044A  00A6               	movwf	___awmod@dividend
  1429  044B  120A  158A  24ED  120A  118A  	fcall	___awmod
  1430  0450  1283               	bcf	3,5	;RP0=0, select bank0
  1431  0451  1303               	bcf	3,6	;RP1=0, select bank0
  1432  0452  0825               	movf	?___awmod+1,w
  1433  0453  00ED               	movwf	_ADC_1_A+1
  1434  0454  0824               	movf	?___awmod,w
  1435  0455  00EC               	movwf	_ADC_1_A
  1436  0456                     l2570:	
  1437                           
  1438                           ;adc.c: 79:         itoa(ADCA_CHARA,ADC_1_A,10);
  1439  0456  086D               	movf	_ADC_1_A+1,w
  1440  0457  00AA               	movwf	itoa@val+1
  1441  0458  086C               	movf	_ADC_1_A,w
  1442  0459  00A9               	movwf	itoa@val
  1443  045A  300A               	movlw	10
  1444  045B  00AB               	movwf	itoa@base
  1445  045C  3000               	movlw	0
  1446  045D  00AC               	movwf	itoa@base+1
  1447  045E  30D2               	movlw	(low (_ADCA_CHARA| 0))& (0+255)
  1448  045F  120A  158A  2408  120A  118A  	fcall	_itoa
  1449  0464                     l2572:	
  1450                           
  1451                           ;adc.c: 80:         ADC_1_B = (DC1/10)%10;
  1452  0464  300A               	movlw	10
  1453  0465  1283               	bcf	3,5	;RP0=0, select bank0
  1454  0466  1303               	bcf	3,6	;RP1=0, select bank0
  1455  0467  00A4               	movwf	___awmod@divisor
  1456  0468  3000               	movlw	0
  1457  0469  00A5               	movwf	___awmod@divisor+1
  1458  046A  300A               	movlw	10
  1459  046B  00F2               	movwf	___awdiv@divisor
  1460  046C  3000               	movlw	0
  1461  046D  00F3               	movwf	___awdiv@divisor+1
  1462  046E  086F               	movf	_DC1+1,w
  1463  046F  00F5               	movwf	___awdiv@dividend+1
  1464  0470  086E               	movf	_DC1,w
  1465  0471  00F4               	movwf	___awdiv@dividend
  1466  0472  120A  158A  2548  120A  118A  	fcall	___awdiv
  1467  0477  0873               	movf	?___awdiv+1,w
  1468  0478  1283               	bcf	3,5	;RP0=0, select bank0
  1469  0479  1303               	bcf	3,6	;RP1=0, select bank0
  1470  047A  00A7               	movwf	___awmod@dividend+1
  1471  047B  0872               	movf	?___awdiv,w
  1472  047C  00A6               	movwf	___awmod@dividend
  1473  047D  120A  158A  24ED  120A  118A  	fcall	___awmod
  1474  0482  1283               	bcf	3,5	;RP0=0, select bank0
  1475  0483  1303               	bcf	3,6	;RP1=0, select bank0
  1476  0484  0825               	movf	?___awmod+1,w
  1477  0485  00EB               	movwf	_ADC_1_B+1
  1478  0486  0824               	movf	?___awmod,w
  1479  0487  00EA               	movwf	_ADC_1_B
  1480  0488                     l2574:	
  1481                           
  1482                           ;adc.c: 81:         itoa(ADCB_CHARB,ADC_1_B,10);
  1483  0488  086B               	movf	_ADC_1_B+1,w
  1484  0489  00AA               	movwf	itoa@val+1
  1485  048A  086A               	movf	_ADC_1_B,w
  1486  048B  00A9               	movwf	itoa@val
  1487  048C  300A               	movlw	10
  1488  048D  00AB               	movwf	itoa@base
  1489  048E  3000               	movlw	0
  1490  048F  00AC               	movwf	itoa@base+1
  1491  0490  30CD               	movlw	(low (_ADCB_CHARB| 0))& (0+255)
  1492  0491  120A  158A  2408  120A  118A  	fcall	_itoa
  1493  0496                     l2576:	
  1494                           
  1495                           ;adc.c: 82:         ADC_A = (DC1/100)%10;
  1496  0496  300A               	movlw	10
  1497  0497  1283               	bcf	3,5	;RP0=0, select bank0
  1498  0498  1303               	bcf	3,6	;RP1=0, select bank0
  1499  0499  00A4               	movwf	___awmod@divisor
  1500  049A  3000               	movlw	0
  1501  049B  00A5               	movwf	___awmod@divisor+1
  1502  049C  3064               	movlw	100
  1503  049D  00F2               	movwf	___awdiv@divisor
  1504  049E  3000               	movlw	0
  1505  049F  00F3               	movwf	___awdiv@divisor+1
  1506  04A0  086F               	movf	_DC1+1,w
  1507  04A1  00F5               	movwf	___awdiv@dividend+1
  1508  04A2  086E               	movf	_DC1,w
  1509  04A3  00F4               	movwf	___awdiv@dividend
  1510  04A4  120A  158A  2548  120A  118A  	fcall	___awdiv
  1511  04A9  0873               	movf	?___awdiv+1,w
  1512  04AA  1283               	bcf	3,5	;RP0=0, select bank0
  1513  04AB  1303               	bcf	3,6	;RP1=0, select bank0
  1514  04AC  00A7               	movwf	___awmod@dividend+1
  1515  04AD  0872               	movf	?___awdiv,w
  1516  04AE  00A6               	movwf	___awmod@dividend
  1517  04AF  120A  158A  24ED  120A  118A  	fcall	___awmod
  1518  04B4  1283               	bcf	3,5	;RP0=0, select bank0
  1519  04B5  1303               	bcf	3,6	;RP1=0, select bank0
  1520  04B6  0825               	movf	?___awmod+1,w
  1521  04B7  00E9               	movwf	_ADC_A+1
  1522  04B8  0824               	movf	?___awmod,w
  1523  04B9  00E8               	movwf	_ADC_A
  1524  04BA                     l2578:	
  1525                           
  1526                           ;adc.c: 83:         itoa(ADCC_CHARC,ADC_A,10);
  1527  04BA  0869               	movf	_ADC_A+1,w
  1528  04BB  00AA               	movwf	itoa@val+1
  1529  04BC  0868               	movf	_ADC_A,w
  1530  04BD  00A9               	movwf	itoa@val
  1531  04BE  300A               	movlw	10
  1532  04BF  00AB               	movwf	itoa@base
  1533  04C0  3000               	movlw	0
  1534  04C1  00AC               	movwf	itoa@base+1
  1535  04C2  30C8               	movlw	(low (_ADCC_CHARC| 0))& (0+255)
  1536  04C3  120A  158A  2408  120A  118A  	fcall	_itoa
  1537  04C8                     l2580:	
  1538                           
  1539                           ;adc.c: 84:         strcat(ADCB_CHARB,ADCA_CHARA);
  1540  04C8  30D2               	movlw	(low (_ADCA_CHARA| 0))& (0+255)
  1541  04C9  1283               	bcf	3,5	;RP0=0, select bank0
  1542  04CA  1303               	bcf	3,6	;RP1=0, select bank0
  1543  04CB  00DA               	movwf	??_ADC
  1544  04CC  085A               	movf	??_ADC,w
  1545  04CD  00F2               	movwf	strcat@from
  1546  04CE  30CD               	movlw	(low (_ADCB_CHARB| 0))& (0+255)
  1547  04CF  120A  158A  2480  120A  118A  	fcall	_strcat
  1548  04D4                     l2582:	
  1549                           
  1550                           ;adc.c: 85:         strcpy(POINTERA,".");
  1551  04D4  3015               	movlw	(low ((STR_2-__stringbase)| (0+32768)))& (0+255)
  1552  04D5  1283               	bcf	3,5	;RP0=0, select bank0
  1553  04D6  1303               	bcf	3,6	;RP1=0, select bank0
  1554  04D7  00DA               	movwf	??_ADC
  1555  04D8  085A               	movf	??_ADC,w
  1556  04D9  00F2               	movwf	strcpy@from
  1557  04DA  30C3               	movlw	(low (_POINTERA| 0))& (0+255)
  1558  04DB  120A  158A  23C1  120A  118A  	fcall	_strcpy
  1559  04E0                     l2584:	
  1560                           
  1561                           ;adc.c: 86:         strcat(POINTERA,ADCB_CHARB);
  1562  04E0  30CD               	movlw	(low (_ADCB_CHARB| 0))& (0+255)
  1563  04E1  1283               	bcf	3,5	;RP0=0, select bank0
  1564  04E2  1303               	bcf	3,6	;RP1=0, select bank0
  1565  04E3  00DA               	movwf	??_ADC
  1566  04E4  085A               	movf	??_ADC,w
  1567  04E5  00F2               	movwf	strcat@from
  1568  04E6  30C3               	movlw	(low (_POINTERA| 0))& (0+255)
  1569  04E7  120A  158A  2480  120A  118A  	fcall	_strcat
  1570  04EC                     l2586:	
  1571                           
  1572                           ;adc.c: 87:         strcat(ADCC_CHARC,POINTERA);
  1573  04EC  30C3               	movlw	(low (_POINTERA| 0))& (0+255)
  1574  04ED  1283               	bcf	3,5	;RP0=0, select bank0
  1575  04EE  1303               	bcf	3,6	;RP1=0, select bank0
  1576  04EF  00DA               	movwf	??_ADC
  1577  04F0  085A               	movf	??_ADC,w
  1578  04F1  00F2               	movwf	strcat@from
  1579  04F2  30C8               	movlw	(low (_ADCC_CHARC| 0))& (0+255)
  1580  04F3  120A  158A  2480  120A  118A  	fcall	_strcat
  1581  04F8                     l2588:	
  1582                           
  1583                           ;adc.c: 90:         _delay((unsigned long)((600)*(4000000/4000000.0)));
  1584  04F8  30C7               	movlw	199
  1585  04F9  1283               	bcf	3,5	;RP0=0, select bank0
  1586  04FA  1303               	bcf	3,6	;RP1=0, select bank0
  1587  04FB  00DA               	movwf	??_ADC
  1588  04FC                     u3417:	
  1589  04FC  0BDA               	decfsz	??_ADC,f
  1590  04FD  2CFC               	goto	u3417
  1591  04FE                     l2590:	
  1592                           
  1593                           ;adc.c: 91:         ADCON0bits.CHS = 0001;
  1594  04FE  1283               	bcf	3,5	;RP0=0, select bank0
  1595  04FF  1303               	bcf	3,6	;RP1=0, select bank0
  1596  0500  081F               	movf	31,w	;volatile
  1597  0501  39C3               	andlw	-61
  1598  0502  3804               	iorlw	4
  1599  0503  009F               	movwf	31	;volatile
  1600  0504                     l2592:	
  1601                           
  1602                           ;adc.c: 92:         ADCON0bits.ADON = 1;
  1603  0504  141F               	bsf	31,0	;volatile
  1604  0505                     l2594:	
  1605                           
  1606                           ;adc.c: 93:         ADCON0bits.GO = 1;
  1607  0505  149F               	bsf	31,1	;volatile
  1608  0506                     l168:	
  1609                           ;adc.c: 94:         while(ADCON0bits.GO);
  1610                           
  1611  0506  189F               	btfsc	31,1	;volatile
  1612  0507  2D09               	goto	u3391
  1613  0508  2D0A               	goto	u3390
  1614  0509                     u3391:	
  1615  0509  2D06               	goto	l168
  1616  050A                     u3390:	
  1617  050A                     l2596:	
  1618                           
  1619                           ;adc.c: 95:         analogic_digital_b = ADRESH;
  1620  050A  081E               	movf	30,w	;volatile
  1621  050B  00DA               	movwf	??_ADC
  1622  050C  085A               	movf	??_ADC,w
  1623  050D  00FA               	movwf	_analogic_digital_b
  1624  050E                     l2598:	
  1625                           
  1626                           ;adc.c: 96:         voltageb = analogic_digital_b*5.0/255.0;
  1627  050E  3043               	movlw	67
  1628  050F  00C3               	movwf	___fldiv@a+3
  1629  0510  307F               	movlw	127
  1630  0511  00C2               	movwf	___fldiv@a+2
  1631  0512  3000               	movlw	0
  1632  0513  00C1               	movwf	___fldiv@a+1
  1633  0514  3000               	movlw	0
  1634  0515  00C0               	movwf	___fldiv@a
  1635  0516  3040               	movlw	64
  1636  0517  00A9               	movwf	___flmul@b+3
  1637  0518  30A0               	movlw	160
  1638  0519  00A8               	movwf	___flmul@b+2
  1639  051A  3000               	movlw	0
  1640  051B  00A7               	movwf	___flmul@b+1
  1641  051C  3000               	movlw	0
  1642  051D  00A6               	movwf	___flmul@b
  1643  051E  087A               	movf	_analogic_digital_b,w
  1644  051F  00DA               	movwf	??_ADC
  1645  0520  01DB               	clrf	??_ADC+1
  1646  0521  01DC               	clrf	??_ADC+2
  1647  0522  01DD               	clrf	??_ADC+3
  1648  0523  085D               	movf	??_ADC+3,w
  1649  0524  00F5               	movwf	___xxtofl@val+3
  1650  0525  085C               	movf	??_ADC+2,w
  1651  0526  00F4               	movwf	___xxtofl@val+2
  1652  0527  085B               	movf	??_ADC+1,w
  1653  0528  00F3               	movwf	___xxtofl@val+1
  1654  0529  085A               	movf	??_ADC,w
  1655  052A  00F2               	movwf	___xxtofl@val
  1656  052B  3001               	movlw	1
  1657  052C  120A  118A  2689  120A  118A  	fcall	___xxtofl
  1658  0531  0875               	movf	?___xxtofl+3,w
  1659  0532  1283               	bcf	3,5	;RP0=0, select bank0
  1660  0533  1303               	bcf	3,6	;RP1=0, select bank0
  1661  0534  00AD               	movwf	___flmul@a+3
  1662  0535  0874               	movf	?___xxtofl+2,w
  1663  0536  00AC               	movwf	___flmul@a+2
  1664  0537  0873               	movf	?___xxtofl+1,w
  1665  0538  00AB               	movwf	___flmul@a+1
  1666  0539  0872               	movf	?___xxtofl,w
  1667  053A  00AA               	movwf	___flmul@a
  1668  053B  120A  118A  2026  120A  118A  	fcall	___flmul
  1669  0540  1283               	bcf	3,5	;RP0=0, select bank0
  1670  0541  1303               	bcf	3,6	;RP1=0, select bank0
  1671  0542  0829               	movf	?___flmul+3,w
  1672  0543  00C7               	movwf	___fldiv@b+3
  1673  0544  0828               	movf	?___flmul+2,w
  1674  0545  00C6               	movwf	___fldiv@b+2
  1675  0546  0827               	movf	?___flmul+1,w
  1676  0547  00C5               	movwf	___fldiv@b+1
  1677  0548  0826               	movf	?___flmul,w
  1678  0549  00C4               	movwf	___fldiv@b
  1679  054A  120A  158A  2623  120A  118A  	fcall	___fldiv
  1680  054F  1283               	bcf	3,5	;RP0=0, select bank0
  1681  0550  1303               	bcf	3,6	;RP1=0, select bank0
  1682  0551  0843               	movf	?___fldiv+3,w
  1683  0552  1683               	bsf	3,5	;RP0=1, select bank1
  1684  0553  1303               	bcf	3,6	;RP1=0, select bank1
  1685  0554  00A3               	movwf	(_voltageb+3)^(0+128)
  1686  0555  1283               	bcf	3,5	;RP0=0, select bank0
  1687  0556  1303               	bcf	3,6	;RP1=0, select bank0
  1688  0557  0842               	movf	?___fldiv+2,w
  1689  0558  1683               	bsf	3,5	;RP0=1, select bank1
  1690  0559  1303               	bcf	3,6	;RP1=0, select bank1
  1691  055A  00A2               	movwf	(_voltageb+2)^(0+128)
  1692  055B  1283               	bcf	3,5	;RP0=0, select bank0
  1693  055C  1303               	bcf	3,6	;RP1=0, select bank0
  1694  055D  0841               	movf	?___fldiv+1,w
  1695  055E  1683               	bsf	3,5	;RP0=1, select bank1
  1696  055F  1303               	bcf	3,6	;RP1=0, select bank1
  1697  0560  00A1               	movwf	(_voltageb+1)^(0+128)
  1698  0561  1283               	bcf	3,5	;RP0=0, select bank0
  1699  0562  1303               	bcf	3,6	;RP1=0, select bank0
  1700  0563  0840               	movf	?___fldiv,w
  1701  0564  1683               	bsf	3,5	;RP0=1, select bank1
  1702  0565  1303               	bcf	3,6	;RP1=0, select bank1
  1703  0566  00A0               	movwf	_voltageb^(0+128)
  1704  0567                     l2600:	
  1705                           
  1706                           ;adc.c: 97:         DC2 = (voltageb)*100;
  1707  0567  0823               	movf	(_voltageb+3)^(0+128),w
  1708  0568  1283               	bcf	3,5	;RP0=0, select bank0
  1709  0569  1303               	bcf	3,6	;RP1=0, select bank0
  1710  056A  00AD               	movwf	___flmul@a+3
  1711  056B  1683               	bsf	3,5	;RP0=1, select bank1
  1712  056C  1303               	bcf	3,6	;RP1=0, select bank1
  1713  056D  0822               	movf	(_voltageb+2)^(0+128),w
  1714  056E  1283               	bcf	3,5	;RP0=0, select bank0
  1715  056F  1303               	bcf	3,6	;RP1=0, select bank0
  1716  0570  00AC               	movwf	___flmul@a+2
  1717  0571  1683               	bsf	3,5	;RP0=1, select bank1
  1718  0572  1303               	bcf	3,6	;RP1=0, select bank1
  1719  0573  0821               	movf	(_voltageb+1)^(0+128),w
  1720  0574  1283               	bcf	3,5	;RP0=0, select bank0
  1721  0575  1303               	bcf	3,6	;RP1=0, select bank0
  1722  0576  00AB               	movwf	___flmul@a+1
  1723  0577  1683               	bsf	3,5	;RP0=1, select bank1
  1724  0578  1303               	bcf	3,6	;RP1=0, select bank1
  1725  0579  0820               	movf	_voltageb^(0+128),w
  1726  057A  1283               	bcf	3,5	;RP0=0, select bank0
  1727  057B  1303               	bcf	3,6	;RP1=0, select bank0
  1728  057C  00AA               	movwf	___flmul@a
  1729  057D  3042               	movlw	66
  1730  057E  00A9               	movwf	___flmul@b+3
  1731  057F  30C8               	movlw	200
  1732  0580  00A8               	movwf	___flmul@b+2
  1733  0581  3000               	movlw	0
  1734  0582  00A7               	movwf	___flmul@b+1
  1735  0583  3000               	movlw	0
  1736  0584  00A6               	movwf	___flmul@b
  1737  0585  120A  118A  2026  120A  118A  	fcall	___flmul
  1738  058A  1283               	bcf	3,5	;RP0=0, select bank0
  1739  058B  1303               	bcf	3,6	;RP1=0, select bank0
  1740  058C  0829               	movf	?___flmul+3,w
  1741  058D  00C3               	movwf	___fltol@f1+3
  1742  058E  0828               	movf	?___flmul+2,w
  1743  058F  00C2               	movwf	___fltol@f1+2
  1744  0590  0827               	movf	?___flmul+1,w
  1745  0591  00C1               	movwf	___fltol@f1+1
  1746  0592  0826               	movf	?___flmul,w
  1747  0593  00C0               	movwf	___fltol@f1
  1748  0594  120A  118A  2745  120A  118A  	fcall	___fltol
  1749  0599  1283               	bcf	3,5	;RP0=0, select bank0
  1750  059A  1303               	bcf	3,6	;RP1=0, select bank0
  1751  059B  0841               	movf	?___fltol+1,w
  1752  059C  00E7               	movwf	_DC2+1
  1753  059D  0840               	movf	?___fltol,w
  1754  059E  00E6               	movwf	_DC2
  1755  059F                     l2602:	
  1756                           
  1757                           ;adc.c: 98:         ADC_2_A = DC2%10;
  1758  059F  300A               	movlw	10
  1759  05A0  00A4               	movwf	___awmod@divisor
  1760  05A1  3000               	movlw	0
  1761  05A2  00A5               	movwf	___awmod@divisor+1
  1762  05A3  0867               	movf	_DC2+1,w
  1763  05A4  00A7               	movwf	___awmod@dividend+1
  1764  05A5  0866               	movf	_DC2,w
  1765  05A6  00A6               	movwf	___awmod@dividend
  1766  05A7  120A  158A  24ED  120A  118A  	fcall	___awmod
  1767  05AC  1283               	bcf	3,5	;RP0=0, select bank0
  1768  05AD  1303               	bcf	3,6	;RP1=0, select bank0
  1769  05AE  0825               	movf	?___awmod+1,w
  1770  05AF  00E5               	movwf	_ADC_2_A+1
  1771  05B0  0824               	movf	?___awmod,w
  1772  05B1  00E4               	movwf	_ADC_2_A
  1773  05B2                     l2604:	
  1774                           
  1775                           ;adc.c: 99:         itoa(ADCAA_CHARA,ADC_2_A,10);
  1776  05B2  0865               	movf	_ADC_2_A+1,w
  1777  05B3  00AA               	movwf	itoa@val+1
  1778  05B4  0864               	movf	_ADC_2_A,w
  1779  05B5  00A9               	movwf	itoa@val
  1780  05B6  300A               	movlw	10
  1781  05B7  00AB               	movwf	itoa@base
  1782  05B8  3000               	movlw	0
  1783  05B9  00AC               	movwf	itoa@base+1
  1784  05BA  30BE               	movlw	(low (_ADCAA_CHARA| 0))& (0+255)
  1785  05BB  120A  158A  2408  120A  118A  	fcall	_itoa
  1786  05C0                     l2606:	
  1787                           
  1788                           ;adc.c: 100:         ADC_2_B = (DC2/10)%10;
  1789  05C0  300A               	movlw	10
  1790  05C1  1283               	bcf	3,5	;RP0=0, select bank0
  1791  05C2  1303               	bcf	3,6	;RP1=0, select bank0
  1792  05C3  00A4               	movwf	___awmod@divisor
  1793  05C4  3000               	movlw	0
  1794  05C5  00A5               	movwf	___awmod@divisor+1
  1795  05C6  300A               	movlw	10
  1796  05C7  00F2               	movwf	___awdiv@divisor
  1797  05C8  3000               	movlw	0
  1798  05C9  00F3               	movwf	___awdiv@divisor+1
  1799  05CA  0867               	movf	_DC2+1,w
  1800  05CB  00F5               	movwf	___awdiv@dividend+1
  1801  05CC  0866               	movf	_DC2,w
  1802  05CD  00F4               	movwf	___awdiv@dividend
  1803  05CE  120A  158A  2548  120A  118A  	fcall	___awdiv
  1804  05D3  0873               	movf	?___awdiv+1,w
  1805  05D4  1283               	bcf	3,5	;RP0=0, select bank0
  1806  05D5  1303               	bcf	3,6	;RP1=0, select bank0
  1807  05D6  00A7               	movwf	___awmod@dividend+1
  1808  05D7  0872               	movf	?___awdiv,w
  1809  05D8  00A6               	movwf	___awmod@dividend
  1810  05D9  120A  158A  24ED  120A  118A  	fcall	___awmod
  1811  05DE  1283               	bcf	3,5	;RP0=0, select bank0
  1812  05DF  1303               	bcf	3,6	;RP1=0, select bank0
  1813  05E0  0825               	movf	?___awmod+1,w
  1814  05E1  00E3               	movwf	_ADC_2_B+1
  1815  05E2  0824               	movf	?___awmod,w
  1816  05E3  00E2               	movwf	_ADC_2_B
  1817  05E4                     l2608:	
  1818                           
  1819                           ;adc.c: 101:         itoa(ADCAB_CHARB,ADC_2_B,10);
  1820  05E4  0863               	movf	_ADC_2_B+1,w
  1821  05E5  00AA               	movwf	itoa@val+1
  1822  05E6  0862               	movf	_ADC_2_B,w
  1823  05E7  00A9               	movwf	itoa@val
  1824  05E8  300A               	movlw	10
  1825  05E9  00AB               	movwf	itoa@base
  1826  05EA  3000               	movlw	0
  1827  05EB  00AC               	movwf	itoa@base+1
  1828  05EC  30B9               	movlw	(low (_ADCAB_CHARB| 0))& (0+255)
  1829  05ED  120A  158A  2408  120A  118A  	fcall	_itoa
  1830  05F2                     l2610:	
  1831                           
  1832                           ;adc.c: 102:         ADC_B = (DC2/100)%10;
  1833  05F2  300A               	movlw	10
  1834  05F3  1283               	bcf	3,5	;RP0=0, select bank0
  1835  05F4  1303               	bcf	3,6	;RP1=0, select bank0
  1836  05F5  00A4               	movwf	___awmod@divisor
  1837  05F6  3000               	movlw	0
  1838  05F7  00A5               	movwf	___awmod@divisor+1
  1839  05F8  3064               	movlw	100
  1840  05F9  00F2               	movwf	___awdiv@divisor
  1841  05FA  3000               	movlw	0
  1842  05FB  00F3               	movwf	___awdiv@divisor+1
  1843  05FC  0867               	movf	_DC2+1,w
  1844  05FD  00F5               	movwf	___awdiv@dividend+1
  1845  05FE  0866               	movf	_DC2,w
  1846  05FF  00F4               	movwf	___awdiv@dividend
  1847  0600  120A  158A  2548  120A  118A  	fcall	___awdiv
  1848  0605  0873               	movf	?___awdiv+1,w
  1849  0606  1283               	bcf	3,5	;RP0=0, select bank0
  1850  0607  1303               	bcf	3,6	;RP1=0, select bank0
  1851  0608  00A7               	movwf	___awmod@dividend+1
  1852  0609  0872               	movf	?___awdiv,w
  1853  060A  00A6               	movwf	___awmod@dividend
  1854  060B  120A  158A  24ED  120A  118A  	fcall	___awmod
  1855  0610  1283               	bcf	3,5	;RP0=0, select bank0
  1856  0611  1303               	bcf	3,6	;RP1=0, select bank0
  1857  0612  0825               	movf	?___awmod+1,w
  1858  0613  00E1               	movwf	_ADC_B+1
  1859  0614  0824               	movf	?___awmod,w
  1860  0615  00E0               	movwf	_ADC_B
  1861  0616                     l2612:	
  1862                           
  1863                           ;adc.c: 103:         itoa(ADCAC_CHARC,ADC_B,10);
  1864  0616  0861               	movf	_ADC_B+1,w
  1865  0617  00AA               	movwf	itoa@val+1
  1866  0618  0860               	movf	_ADC_B,w
  1867  0619  00A9               	movwf	itoa@val
  1868  061A  300A               	movlw	10
  1869  061B  00AB               	movwf	itoa@base
  1870  061C  3000               	movlw	0
  1871  061D  00AC               	movwf	itoa@base+1
  1872  061E  30B4               	movlw	(low (_ADCAC_CHARC| 0))& (0+255)
  1873  061F  120A  158A  2408  120A  118A  	fcall	_itoa
  1874  0624                     l2614:	
  1875                           
  1876                           ;adc.c: 104:         strcat(ADCAB_CHARB,ADCAA_CHARA);
  1877  0624  30BE               	movlw	(low (_ADCAA_CHARA| 0))& (0+255)
  1878  0625  1283               	bcf	3,5	;RP0=0, select bank0
  1879  0626  1303               	bcf	3,6	;RP1=0, select bank0
  1880  0627  00DA               	movwf	??_ADC
  1881  0628  085A               	movf	??_ADC,w
  1882  0629  00F2               	movwf	strcat@from
  1883  062A  30B9               	movlw	(low (_ADCAB_CHARB| 0))& (0+255)
  1884  062B  120A  158A  2480  120A  118A  	fcall	_strcat
  1885  0630                     l2616:	
  1886                           
  1887                           ;adc.c: 105:         strcpy(POINTERB,".");
  1888  0630  3015               	movlw	(low ((STR_2-__stringbase)| (0+32768)))& (0+255)
  1889  0631  1283               	bcf	3,5	;RP0=0, select bank0
  1890  0632  1303               	bcf	3,6	;RP1=0, select bank0
  1891  0633  00DA               	movwf	??_ADC
  1892  0634  085A               	movf	??_ADC,w
  1893  0635  00F2               	movwf	strcpy@from
  1894  0636  30AF               	movlw	(low (_POINTERB| 0))& (0+255)
  1895  0637  120A  158A  23C1  120A  118A  	fcall	_strcpy
  1896  063C                     l2618:	
  1897                           
  1898                           ;adc.c: 106:         strcat(POINTERB,ADCAB_CHARB);
  1899  063C  30B9               	movlw	(low (_ADCAB_CHARB| 0))& (0+255)
  1900  063D  1283               	bcf	3,5	;RP0=0, select bank0
  1901  063E  1303               	bcf	3,6	;RP1=0, select bank0
  1902  063F  00DA               	movwf	??_ADC
  1903  0640  085A               	movf	??_ADC,w
  1904  0641  00F2               	movwf	strcat@from
  1905  0642  30AF               	movlw	(low (_POINTERB| 0))& (0+255)
  1906  0643  120A  158A  2480  120A  118A  	fcall	_strcat
  1907  0648                     l2620:	
  1908                           
  1909                           ;adc.c: 107:         strcat(ADCAC_CHARC,POINTERB);
  1910  0648  30AF               	movlw	(low (_POINTERB| 0))& (0+255)
  1911  0649  1283               	bcf	3,5	;RP0=0, select bank0
  1912  064A  1303               	bcf	3,6	;RP1=0, select bank0
  1913  064B  00DA               	movwf	??_ADC
  1914  064C  085A               	movf	??_ADC,w
  1915  064D  00F2               	movwf	strcat@from
  1916  064E  30B4               	movlw	(low (_ADCAC_CHARC| 0))& (0+255)
  1917  064F  120A  158A  2480  120A  118A  	fcall	_strcat
  1918  0654                     l2622:	
  1919                           
  1920                           ;adc.c: 110:         LCD_cmd(0xC0);
  1921  0654  30C0               	movlw	192
  1922  0655  120A  158A  2335  120A  118A  	fcall	_LCD_cmd
  1923  065A                     l2624:	
  1924                           
  1925                           ;adc.c: 111:         LCD_msg(ADCC_CHARC);
  1926  065A  30C8               	movlw	(low (_ADCC_CHARC| 0))& (0+255)
  1927  065B  00F5               	movwf	LCD_msg@c
  1928  065C  3000               	movlw	0
  1929  065D  00F6               	movwf	LCD_msg@c+1
  1930  065E  120A  158A  23E2  120A  118A  	fcall	_LCD_msg
  1931  0663                     l2626:	
  1932                           
  1933                           ;adc.c: 112:         LCD_msg("V ");
  1934  0663  3012               	movlw	(low ((STR_4-__stringbase)| (0+32768)))& (0+255)
  1935  0664  00F5               	movwf	LCD_msg@c
  1936  0665  3080               	movlw	128
  1937  0666  00F6               	movwf	LCD_msg@c+1
  1938  0667  120A  158A  23E2  120A  118A  	fcall	_LCD_msg
  1939  066C                     l2628:	
  1940                           
  1941                           ;adc.c: 113:         LCD_msg(ADCAC_CHARC);
  1942  066C  30B4               	movlw	(low (_ADCAC_CHARC| 0))& (0+255)
  1943  066D  00F5               	movwf	LCD_msg@c
  1944  066E  3000               	movlw	0
  1945  066F  00F6               	movwf	LCD_msg@c+1
  1946  0670  120A  158A  23E2  120A  118A  	fcall	_LCD_msg
  1947  0675                     l2630:	
  1948                           
  1949                           ;adc.c: 114:         LCD_msg("V ");
  1950  0675  3012               	movlw	(low ((STR_4-__stringbase)| (0+32768)))& (0+255)
  1951  0676  00F5               	movwf	LCD_msg@c
  1952  0677  3080               	movlw	128
  1953  0678  00F6               	movwf	LCD_msg@c+1
  1954  0679  120A  158A  23E2  120A  118A  	fcall	_LCD_msg
  1955  067E                     l2632:	
  1956                           
  1957                           ;adc.c: 115:         LCD_msg(ARDUINO);
  1958  067E  30AA               	movlw	(low (_ARDUINO| 0))& (0+255)
  1959  067F  00F5               	movwf	LCD_msg@c
  1960  0680  3000               	movlw	0
  1961  0681  00F6               	movwf	LCD_msg@c+1
  1962  0682  120A  158A  23E2  120A  118A  	fcall	_LCD_msg
  1963  0687  2B9C               	goto	l2554
  1964  0688  0008               	return
  1965  0689                     __end_of_ADC:	
  1966                           
  1967                           	psect	text4
  1968  0BC1                     __ptext4:	
  1969 ;; *************** function _strcpy *****************
  1970 ;; Defined at:
  1971 ;;		line 8 in file "C:\Program Files (x86)\Microchip\xc8\v2.10\pic\sources\c90\common\strcpy.c"
  1972 ;; Parameters:    Size  Location     Type
  1973 ;;  to              1    wreg     PTR unsigned char 
  1974 ;;		 -> POINTERB(5), POINTERA(5), 
  1975 ;;  from            1    2[COMMON] PTR const unsigned char 
  1976 ;;		 -> STR_3(2), STR_2(2), 
  1977 ;; Auto vars:     Size  Location     Type
  1978 ;;  to              1    5[COMMON] PTR unsigned char 
  1979 ;;		 -> POINTERB(5), POINTERA(5), 
  1980 ;;  cp              1    4[COMMON] PTR unsigned char 
  1981 ;;		 -> POINTERB(5), POINTERA(5), 
  1982 ;; Return value:  Size  Location     Type
  1983 ;;                  1    wreg      PTR unsigned char 
  1984 ;; Registers used:
  1985 ;;		wreg, fsr0l, fsr0h, status,2, status,0, pclath
  1986 ;; Tracked objects:
  1987 ;;		On entry : 0/0
  1988 ;;		On exit  : 0/0
  1989 ;;		Unchanged: 0/0
  1990 ;; Data sizes:     COMMON   BANK0   BANK1   BANK3   BANK2
  1991 ;;      Params:         1       0       0       0       0
  1992 ;;      Locals:         2       0       0       0       0
  1993 ;;      Temps:          1       0       0       0       0
  1994 ;;      Totals:         4       0       0       0       0
  1995 ;;Total ram usage:        4 bytes
  1996 ;; Hardware stack levels used:    2
  1997 ;; Hardware stack levels required when called:    1
  1998 ;; This function calls:
  1999 ;;		Nothing
  2000 ;; This function is called by:
  2001 ;;		_ADC
  2002 ;; This function uses a non-reentrant model
  2003 ;;
  2004                           
  2005                           
  2006                           ;psect for function _strcpy
  2007  0BC1                     _strcpy:	
  2008                           
  2009                           ;incstack = 0
  2010                           ; Regs used in _strcpy: [wreg-fsr0h+status,2+status,0+pclath]
  2011                           ;strcpy@to stored from wreg
  2012  0BC1  00F5               	movwf	strcpy@to
  2013  0BC2                     l1710:	
  2014  0BC2  0875               	movf	strcpy@to,w
  2015  0BC3  00F3               	movwf	??_strcpy
  2016  0BC4  0873               	movf	??_strcpy,w
  2017  0BC5  00F4               	movwf	strcpy@cp
  2018  0BC6  2BCF               	goto	l1714
  2019  0BC7                     l1712:	
  2020  0BC7  3001               	movlw	1
  2021  0BC8  00F3               	movwf	??_strcpy
  2022  0BC9  0873               	movf	??_strcpy,w
  2023  0BCA  07F4               	addwf	strcpy@cp,f
  2024  0BCB  3001               	movlw	1
  2025  0BCC  00F3               	movwf	??_strcpy
  2026  0BCD  0873               	movf	??_strcpy,w
  2027  0BCE  07F2               	addwf	strcpy@from,f
  2028  0BCF                     l1714:	
  2029  0BCF  0872               	movf	strcpy@from,w
  2030  0BD0  0084               	movwf	4
  2031  0BD1  120A  158A  200A  120A  158A  	fcall	stringdir
  2032  0BD6  00F3               	movwf	??_strcpy
  2033  0BD7  0874               	movf	strcpy@cp,w
  2034  0BD8  0084               	movwf	4
  2035  0BD9  0873               	movf	??_strcpy,w
  2036  0BDA  1383               	bcf	3,7	;select IRP bank0
  2037  0BDB  0080               	movwf	0
  2038  0BDC  0800               	movf	0,w
  2039  0BDD  1D03               	btfss	3,2
  2040  0BDE  2BE0               	goto	u1631
  2041  0BDF  2BE1               	goto	u1630
  2042  0BE0                     u1631:	
  2043  0BE0  2BC7               	goto	l1712
  2044  0BE1                     u1630:	
  2045  0BE1                     l732:	
  2046  0BE1  0008               	return
  2047  0BE2                     __end_of_strcpy:	
  2048                           
  2049                           	psect	text5
  2050  0C80                     __ptext5:	
  2051 ;; *************** function _strcat *****************
  2052 ;; Defined at:
  2053 ;;		line 8 in file "C:\Program Files (x86)\Microchip\xc8\v2.10\pic\sources\c90\common\strcat.c"
  2054 ;; Parameters:    Size  Location     Type
  2055 ;;  to              1    wreg     PTR unsigned char 
  2056 ;;		 -> POINTERB(5), ADCAC_CHARC(5), ADCAB_CHARB(5), POINTERA(5), 
  2057 ;;		 -> ADCC_CHARC(5), ADCB_CHARB(5), 
  2058 ;;  from            1    2[COMMON] PTR const unsigned char 
  2059 ;;		 -> POINTERB(5), ADCAB_CHARB(5), ADCAA_CHARA(5), POINTERA(5), 
  2060 ;;		 -> ADCB_CHARB(5), ADCA_CHARA(5), 
  2061 ;; Auto vars:     Size  Location     Type
  2062 ;;  to              1    5[COMMON] PTR unsigned char 
  2063 ;;		 -> POINTERB(5), ADCAC_CHARC(5), ADCAB_CHARB(5), POINTERA(5), 
  2064 ;;		 -> ADCC_CHARC(5), ADCB_CHARB(5), 
  2065 ;;  cp              1    4[COMMON] PTR unsigned char 
  2066 ;;		 -> POINTERB(5), ADCAC_CHARC(5), ADCAB_CHARB(5), POINTERA(5), 
  2067 ;;		 -> ADCC_CHARC(5), ADCB_CHARB(5), 
  2068 ;; Return value:  Size  Location     Type
  2069 ;;                  1    wreg      PTR unsigned char 
  2070 ;; Registers used:
  2071 ;;		wreg, fsr0l, fsr0h, status,2, status,0
  2072 ;; Tracked objects:
  2073 ;;		On entry : 0/0
  2074 ;;		On exit  : 0/0
  2075 ;;		Unchanged: 0/0
  2076 ;; Data sizes:     COMMON   BANK0   BANK1   BANK3   BANK2
  2077 ;;      Params:         1       0       0       0       0
  2078 ;;      Locals:         2       0       0       0       0
  2079 ;;      Temps:          1       0       0       0       0
  2080 ;;      Totals:         4       0       0       0       0
  2081 ;;Total ram usage:        4 bytes
  2082 ;; Hardware stack levels used:    1
  2083 ;; Hardware stack levels required when called:    1
  2084 ;; This function calls:
  2085 ;;		Nothing
  2086 ;; This function is called by:
  2087 ;;		_ADC
  2088 ;; This function uses a non-reentrant model
  2089 ;;
  2090                           
  2091                           
  2092                           ;psect for function _strcat
  2093  0C80                     _strcat:	
  2094                           
  2095                           ;incstack = 0
  2096                           ; Regs used in _strcat: [wreg-fsr0h+status,2+status,0]
  2097                           ;strcat@to stored from wreg
  2098  0C80  00F5               	movwf	strcat@to
  2099  0C81                     l1700:	
  2100  0C81  0875               	movf	strcat@to,w
  2101  0C82  00F3               	movwf	??_strcat
  2102  0C83  0873               	movf	??_strcat,w
  2103  0C84  00F4               	movwf	strcat@cp
  2104  0C85  2C8A               	goto	l1704
  2105  0C86                     l1702:	
  2106  0C86  3001               	movlw	1
  2107  0C87  00F3               	movwf	??_strcat
  2108  0C88  0873               	movf	??_strcat,w
  2109  0C89  07F4               	addwf	strcat@cp,f
  2110  0C8A                     l1704:	
  2111  0C8A  0874               	movf	strcat@cp,w
  2112  0C8B  0084               	movwf	4
  2113  0C8C  1383               	bcf	3,7	;select IRP bank0
  2114  0C8D  0800               	movf	0,w
  2115  0C8E  1D03               	btfss	3,2
  2116  0C8F  2C91               	goto	u1611
  2117  0C90  2C92               	goto	u1610
  2118  0C91                     u1611:	
  2119  0C91  2C86               	goto	l1702
  2120  0C92                     u1610:	
  2121  0C92  2C9B               	goto	l1708
  2122  0C93                     l1706:	
  2123  0C93  3001               	movlw	1
  2124  0C94  00F3               	movwf	??_strcat
  2125  0C95  0873               	movf	??_strcat,w
  2126  0C96  07F4               	addwf	strcat@cp,f
  2127  0C97  3001               	movlw	1
  2128  0C98  00F3               	movwf	??_strcat
  2129  0C99  0873               	movf	??_strcat,w
  2130  0C9A  07F2               	addwf	strcat@from,f
  2131  0C9B                     l1708:	
  2132  0C9B  0872               	movf	strcat@from,w
  2133  0C9C  0084               	movwf	4
  2134  0C9D  0800               	movf	0,w
  2135  0C9E  00F3               	movwf	??_strcat
  2136  0C9F  0874               	movf	strcat@cp,w
  2137  0CA0  0084               	movwf	4
  2138  0CA1  0873               	movf	??_strcat,w
  2139  0CA2  0080               	movwf	0
  2140  0CA3  0800               	movf	0,w
  2141  0CA4  1D03               	btfss	3,2
  2142  0CA5  2CA7               	goto	u1621
  2143  0CA6  2CA8               	goto	u1620
  2144  0CA7                     u1621:	
  2145  0CA7  2C93               	goto	l1706
  2146  0CA8                     u1620:	
  2147  0CA8                     l726:	
  2148  0CA8  0008               	return
  2149  0CA9                     __end_of_strcat:	
  2150                           
  2151                           	psect	text6
  2152  0C08                     __ptext6:	
  2153 ;; *************** function _itoa *****************
  2154 ;; Defined at:
  2155 ;;		line 4 in file "C:\Program Files (x86)\Microchip\xc8\v2.10\pic\sources\c90\common\itoa.c"
  2156 ;; Parameters:    Size  Location     Type
  2157 ;;  buf             1    wreg     PTR unsigned char 
  2158 ;;		 -> ADCAC_CHARC(5), ADCAB_CHARB(5), ADCAA_CHARA(5), ADCC_CHARC(5), 
  2159 ;;		 -> ADCB_CHARB(5), ADCA_CHARA(5), ARDUINO(5), 
  2160 ;;  val             2    9[BANK0 ] int 
  2161 ;;  base            2   11[BANK0 ] int 
  2162 ;; Auto vars:     Size  Location     Type
  2163 ;;  buf             1   15[BANK0 ] PTR unsigned char 
  2164 ;;		 -> ADCAC_CHARC(5), ADCAB_CHARB(5), ADCAA_CHARA(5), ADCC_CHARC(5), 
  2165 ;;		 -> ADCB_CHARB(5), ADCA_CHARA(5), ARDUINO(5), 
  2166 ;;  cp              1    0        PTR unsigned char 
  2167 ;;		 -> ADCAC_CHARC(5), ADCAB_CHARB(5), ADCAA_CHARA(5), ADCC_CHARC(5), 
  2168 ;;		 -> ADCB_CHARB(5), ADCA_CHARA(5), ARDUINO(5), 
  2169 ;; Return value:  Size  Location     Type
  2170 ;;                  1    wreg      PTR unsigned char 
  2171 ;; Registers used:
  2172 ;;		wreg, fsr0l, fsr0h, status,2, status,0, pclath, cstack
  2173 ;; Tracked objects:
  2174 ;;		On entry : 0/0
  2175 ;;		On exit  : 0/0
  2176 ;;		Unchanged: 0/0
  2177 ;; Data sizes:     COMMON   BANK0   BANK1   BANK3   BANK2
  2178 ;;      Params:         0       4       0       0       0
  2179 ;;      Locals:         0       2       0       0       0
  2180 ;;      Temps:          0       1       0       0       0
  2181 ;;      Totals:         0       7       0       0       0
  2182 ;;Total ram usage:        7 bytes
  2183 ;; Hardware stack levels used:    1
  2184 ;; Hardware stack levels required when called:    3
  2185 ;; This function calls:
  2186 ;;		_utoa
  2187 ;; This function is called by:
  2188 ;;		_ADC
  2189 ;;		_PC
  2190 ;; This function uses a non-reentrant model
  2191 ;;
  2192                           
  2193                           
  2194                           ;psect for function _itoa
  2195  0C08                     _itoa:	
  2196                           
  2197                           ;incstack = 0
  2198                           ; Regs used in _itoa: [wreg-fsr0h+status,2+status,0+pclath+cstack]
  2199                           ;itoa@buf stored from wreg
  2200  0C08  1283               	bcf	3,5	;RP0=0, select bank0
  2201  0C09  1303               	bcf	3,6	;RP1=0, select bank0
  2202  0C0A  00AF               	movwf	itoa@buf
  2203  0C0B                     l2306:	
  2204  0C0B                     l2308:	
  2205  0C0B  1FAA               	btfss	itoa@val+1,7
  2206  0C0C  2C0E               	goto	u2811
  2207  0C0D  2C0F               	goto	u2810
  2208  0C0E                     u2811:	
  2209  0C0E  2C1F               	goto	l2316
  2210  0C0F                     u2810:	
  2211  0C0F                     l2310:	
  2212  0C0F  302D               	movlw	45
  2213  0C10  00AD               	movwf	??_itoa
  2214  0C11  082F               	movf	itoa@buf,w
  2215  0C12  0084               	movwf	4
  2216  0C13  082D               	movf	??_itoa,w
  2217  0C14  1383               	bcf	3,7	;select IRP bank0
  2218  0C15  0080               	movwf	0
  2219  0C16                     l2312:	
  2220  0C16  3001               	movlw	1
  2221  0C17  00AD               	movwf	??_itoa
  2222  0C18  082D               	movf	??_itoa,w
  2223  0C19  07AF               	addwf	itoa@buf,f
  2224  0C1A                     l2314:	
  2225  0C1A  09A9               	comf	itoa@val,f
  2226  0C1B  09AA               	comf	itoa@val+1,f
  2227  0C1C  0AA9               	incf	itoa@val,f
  2228  0C1D  1903               	skipnz
  2229  0C1E  0AAA               	incf	itoa@val+1,f
  2230  0C1F                     l2316:	
  2231  0C1F  082A               	movf	itoa@val+1,w
  2232  0C20  00A1               	movwf	utoa@val+1
  2233  0C21  0829               	movf	itoa@val,w
  2234  0C22  00A0               	movwf	utoa@val
  2235  0C23  082C               	movf	itoa@base+1,w
  2236  0C24  00A3               	movwf	utoa@base+1
  2237  0C25  082B               	movf	itoa@base,w
  2238  0C26  00A2               	movwf	utoa@base
  2239  0C27  082F               	movf	itoa@buf,w
  2240  0C28  120A  158A  25B1  120A  158A  	fcall	_utoa
  2241  0C2D                     l709:	
  2242  0C2D  0008               	return
  2243  0C2E                     __end_of_itoa:	
  2244                           
  2245                           	psect	text7
  2246  0DB1                     __ptext7:	
  2247 ;; *************** function _utoa *****************
  2248 ;; Defined at:
  2249 ;;		line 17 in file "C:\Program Files (x86)\Microchip\xc8\v2.10\pic\sources\c90\common\itoa.c"
  2250 ;; Parameters:    Size  Location     Type
  2251 ;;  buf             1    wreg     PTR unsigned char 
  2252 ;;		 -> ADCAC_CHARC(5), ADCAB_CHARB(5), ADCAA_CHARA(5), ADCC_CHARC(5), 
  2253 ;;		 -> ADCB_CHARB(5), ADCA_CHARA(5), ARDUINO(5), 
  2254 ;;  val             2    0[BANK0 ] unsigned int 
  2255 ;;  base            2    2[BANK0 ] int 
  2256 ;; Auto vars:     Size  Location     Type
  2257 ;;  buf             1    8[BANK0 ] PTR unsigned char 
  2258 ;;		 -> ADCAC_CHARC(5), ADCAB_CHARB(5), ADCAA_CHARA(5), ADCC_CHARC(5), 
  2259 ;;		 -> ADCB_CHARB(5), ADCA_CHARA(5), ARDUINO(5), 
  2260 ;;  v               2    5[BANK0 ] unsigned int 
  2261 ;;  c               1    7[BANK0 ] unsigned char 
  2262 ;; Return value:  Size  Location     Type
  2263 ;;                  1    wreg      PTR unsigned char 
  2264 ;; Registers used:
  2265 ;;		wreg, fsr0l, fsr0h, status,2, status,0, pclath, cstack
  2266 ;; Tracked objects:
  2267 ;;		On entry : 0/0
  2268 ;;		On exit  : 0/0
  2269 ;;		Unchanged: 0/0
  2270 ;; Data sizes:     COMMON   BANK0   BANK1   BANK3   BANK2
  2271 ;;      Params:         0       4       0       0       0
  2272 ;;      Locals:         0       4       0       0       0
  2273 ;;      Temps:          0       1       0       0       0
  2274 ;;      Totals:         0       9       0       0       0
  2275 ;;Total ram usage:        9 bytes
  2276 ;; Hardware stack levels used:    1
  2277 ;; Hardware stack levels required when called:    2
  2278 ;; This function calls:
  2279 ;;		___lwdiv
  2280 ;;		___lwmod
  2281 ;; This function is called by:
  2282 ;;		_itoa
  2283 ;; This function uses a non-reentrant model
  2284 ;;
  2285                           
  2286                           
  2287                           ;psect for function _utoa
  2288  0DB1                     _utoa:	
  2289                           
  2290                           ;incstack = 0
  2291                           ; Regs used in _utoa: [wreg-fsr0h+status,2+status,0+pclath+cstack]
  2292                           ;utoa@buf stored from wreg
  2293  0DB1  1283               	bcf	3,5	;RP0=0, select bank0
  2294  0DB2  1303               	bcf	3,6	;RP1=0, select bank0
  2295  0DB3  00A8               	movwf	utoa@buf
  2296  0DB4                     l2276:	
  2297  0DB4  0821               	movf	utoa@val+1,w
  2298  0DB5  00A6               	movwf	utoa@v+1
  2299  0DB6  0820               	movf	utoa@val,w
  2300  0DB7  00A5               	movwf	utoa@v
  2301  0DB8                     l2278:	
  2302  0DB8  0823               	movf	utoa@base+1,w
  2303  0DB9  00F3               	movwf	___lwdiv@divisor+1
  2304  0DBA  0822               	movf	utoa@base,w
  2305  0DBB  00F2               	movwf	___lwdiv@divisor
  2306  0DBC  0826               	movf	utoa@v+1,w
  2307  0DBD  00F5               	movwf	___lwdiv@dividend+1
  2308  0DBE  0825               	movf	utoa@v,w
  2309  0DBF  00F4               	movwf	___lwdiv@dividend
  2310  0DC0  120A  158A  24A9  120A  158A  	fcall	___lwdiv
  2311  0DC5  0873               	movf	?___lwdiv+1,w
  2312  0DC6  1283               	bcf	3,5	;RP0=0, select bank0
  2313  0DC7  1303               	bcf	3,6	;RP1=0, select bank0
  2314  0DC8  00A6               	movwf	utoa@v+1
  2315  0DC9  0872               	movf	?___lwdiv,w
  2316  0DCA  00A5               	movwf	utoa@v
  2317  0DCB                     l2280:	
  2318  0DCB  3001               	movlw	1
  2319  0DCC  00A4               	movwf	??_utoa
  2320  0DCD  0824               	movf	??_utoa,w
  2321  0DCE  07A8               	addwf	utoa@buf,f
  2322  0DCF                     l2282:	
  2323  0DCF  0825               	movf	utoa@v,w
  2324  0DD0  0426               	iorwf	utoa@v+1,w
  2325  0DD1  1D03               	btfss	3,2
  2326  0DD2  2DD4               	goto	u2781
  2327  0DD3  2DD5               	goto	u2780
  2328  0DD4                     u2781:	
  2329  0DD4  2DB8               	goto	l2278
  2330  0DD5                     u2780:	
  2331  0DD5                     l2284:	
  2332  0DD5  0828               	movf	utoa@buf,w
  2333  0DD6  0084               	movwf	4
  2334  0DD7  1383               	bcf	3,7	;select IRP bank0
  2335  0DD8  0180               	clrf	0
  2336  0DD9                     l2286:	
  2337  0DD9  3001               	movlw	1
  2338  0DDA  02A8               	subwf	utoa@buf,f
  2339  0DDB                     l2288:	
  2340  0DDB  0823               	movf	utoa@base+1,w
  2341  0DDC  00F3               	movwf	___lwmod@divisor+1
  2342  0DDD  0822               	movf	utoa@base,w
  2343  0DDE  00F2               	movwf	___lwmod@divisor
  2344  0DDF  0821               	movf	utoa@val+1,w
  2345  0DE0  00F5               	movwf	___lwmod@dividend+1
  2346  0DE1  0820               	movf	utoa@val,w
  2347  0DE2  00F4               	movwf	___lwmod@dividend
  2348  0DE3  120A  118A  27C1  120A  158A  	fcall	___lwmod
  2349  0DE8  0872               	movf	?___lwmod,w
  2350  0DE9  1283               	bcf	3,5	;RP0=0, select bank0
  2351  0DEA  1303               	bcf	3,6	;RP1=0, select bank0
  2352  0DEB  00A4               	movwf	??_utoa
  2353  0DEC  0824               	movf	??_utoa,w
  2354  0DED  00A7               	movwf	utoa@c
  2355  0DEE                     l2290:	
  2356  0DEE  0823               	movf	utoa@base+1,w
  2357  0DEF  00F3               	movwf	___lwdiv@divisor+1
  2358  0DF0  0822               	movf	utoa@base,w
  2359  0DF1  00F2               	movwf	___lwdiv@divisor
  2360  0DF2  0821               	movf	utoa@val+1,w
  2361  0DF3  00F5               	movwf	___lwdiv@dividend+1
  2362  0DF4  0820               	movf	utoa@val,w
  2363  0DF5  00F4               	movwf	___lwdiv@dividend
  2364  0DF6  120A  158A  24A9  120A  158A  	fcall	___lwdiv
  2365  0DFB  0873               	movf	?___lwdiv+1,w
  2366  0DFC  1283               	bcf	3,5	;RP0=0, select bank0
  2367  0DFD  1303               	bcf	3,6	;RP1=0, select bank0
  2368  0DFE  00A1               	movwf	utoa@val+1
  2369  0DFF  0872               	movf	?___lwdiv,w
  2370  0E00  00A0               	movwf	utoa@val
  2371  0E01                     l2292:	
  2372  0E01  300A               	movlw	10
  2373  0E02  0227               	subwf	utoa@c,w
  2374  0E03  1C03               	skipc
  2375  0E04  2E06               	goto	u2791
  2376  0E05  2E07               	goto	u2790
  2377  0E06                     u2791:	
  2378  0E06  2E0B               	goto	l715
  2379  0E07                     u2790:	
  2380  0E07                     l2294:	
  2381  0E07  3007               	movlw	7
  2382  0E08  00A4               	movwf	??_utoa
  2383  0E09  0824               	movf	??_utoa,w
  2384  0E0A  07A7               	addwf	utoa@c,f
  2385  0E0B                     l715:	
  2386  0E0B  3030               	movlw	48
  2387  0E0C  00A4               	movwf	??_utoa
  2388  0E0D  0824               	movf	??_utoa,w
  2389  0E0E  07A7               	addwf	utoa@c,f
  2390  0E0F                     l2296:	
  2391  0E0F  0827               	movf	utoa@c,w
  2392  0E10  00A4               	movwf	??_utoa
  2393  0E11  0828               	movf	utoa@buf,w
  2394  0E12  0084               	movwf	4
  2395  0E13  0824               	movf	??_utoa,w
  2396  0E14  1383               	bcf	3,7	;select IRP bank0
  2397  0E15  0080               	movwf	0
  2398  0E16                     l2298:	
  2399  0E16  3001               	movlw	1
  2400  0E17  02A8               	subwf	utoa@buf,f
  2401  0E18                     l2300:	
  2402  0E18  0820               	movf	utoa@val,w
  2403  0E19  0421               	iorwf	utoa@val+1,w
  2404  0E1A  1D03               	btfss	3,2
  2405  0E1B  2E1D               	goto	u2801
  2406  0E1C  2E1E               	goto	u2800
  2407  0E1D                     u2801:	
  2408  0E1D  2DDB               	goto	l2288
  2409  0E1E                     u2800:	
  2410  0E1E                     l2302:	
  2411                           
  2412                           ;	Return value of _utoa is never used
  2413  0E1E  3001               	movlw	1
  2414  0E1F  00A4               	movwf	??_utoa
  2415  0E20  0824               	movf	??_utoa,w
  2416  0E21  07A8               	addwf	utoa@buf,f
  2417  0E22                     l717:	
  2418  0E22  0008               	return
  2419  0E23                     __end_of_utoa:	
  2420                           
  2421                           	psect	text8
  2422  07C1                     __ptext8:	
  2423 ;; *************** function ___lwmod *****************
  2424 ;; Defined at:
  2425 ;;		line 5 in file "C:\Program Files (x86)\Microchip\xc8\v2.10\pic\sources\c90\common\lwmod.c"
  2426 ;; Parameters:    Size  Location     Type
  2427 ;;  divisor         2    2[COMMON] unsigned int 
  2428 ;;  dividend        2    4[COMMON] unsigned int 
  2429 ;; Auto vars:     Size  Location     Type
  2430 ;;  counter         1    7[COMMON] unsigned char 
  2431 ;; Return value:  Size  Location     Type
  2432 ;;                  2    2[COMMON] unsigned int 
  2433 ;; Registers used:
  2434 ;;		wreg, status,2, status,0
  2435 ;; Tracked objects:
  2436 ;;		On entry : 0/0
  2437 ;;		On exit  : 0/0
  2438 ;;		Unchanged: 0/0
  2439 ;; Data sizes:     COMMON   BANK0   BANK1   BANK3   BANK2
  2440 ;;      Params:         4       0       0       0       0
  2441 ;;      Locals:         1       0       0       0       0
  2442 ;;      Temps:          1       0       0       0       0
  2443 ;;      Totals:         6       0       0       0       0
  2444 ;;Total ram usage:        6 bytes
  2445 ;; Hardware stack levels used:    1
  2446 ;; Hardware stack levels required when called:    1
  2447 ;; This function calls:
  2448 ;;		Nothing
  2449 ;; This function is called by:
  2450 ;;		_utoa
  2451 ;; This function uses a non-reentrant model
  2452 ;;
  2453                           
  2454                           
  2455                           ;psect for function ___lwmod
  2456  07C1                     ___lwmod:	
  2457  07C1                     l1592:	
  2458                           ;incstack = 0
  2459                           ; Regs used in ___lwmod: [wreg+status,2+status,0]
  2460                           
  2461  07C1  0872               	movf	___lwmod@divisor,w
  2462  07C2  0473               	iorwf	___lwmod@divisor+1,w
  2463  07C3  1903               	btfsc	3,2
  2464  07C4  2FC6               	goto	u1471
  2465  07C5  2FC7               	goto	u1470
  2466  07C6                     u1471:	
  2467  07C6  2FF6               	goto	l1610
  2468  07C7                     u1470:	
  2469  07C7                     l1594:	
  2470  07C7  01F7               	clrf	___lwmod@counter
  2471  07C8  0AF7               	incf	___lwmod@counter,f
  2472  07C9  2FD5               	goto	l1600
  2473  07CA                     l1596:	
  2474  07CA  3001               	movlw	1
  2475  07CB                     u1485:	
  2476  07CB  1003               	clrc
  2477  07CC  0DF2               	rlf	___lwmod@divisor,f
  2478  07CD  0DF3               	rlf	___lwmod@divisor+1,f
  2479  07CE  3EFF               	addlw	-1
  2480  07CF  1D03               	skipz
  2481  07D0  2FCB               	goto	u1485
  2482  07D1                     l1598:	
  2483  07D1  3001               	movlw	1
  2484  07D2  00F6               	movwf	??___lwmod
  2485  07D3  0876               	movf	??___lwmod,w
  2486  07D4  07F7               	addwf	___lwmod@counter,f
  2487  07D5                     l1600:	
  2488  07D5  1FF3               	btfss	___lwmod@divisor+1,7
  2489  07D6  2FD8               	goto	u1491
  2490  07D7  2FD9               	goto	u1490
  2491  07D8                     u1491:	
  2492  07D8  2FCA               	goto	l1596
  2493  07D9                     u1490:	
  2494  07D9                     l1602:	
  2495  07D9  0873               	movf	___lwmod@divisor+1,w
  2496  07DA  0275               	subwf	___lwmod@dividend+1,w
  2497  07DB  1D03               	skipz
  2498  07DC  2FDF               	goto	u1505
  2499  07DD  0872               	movf	___lwmod@divisor,w
  2500  07DE  0274               	subwf	___lwmod@dividend,w
  2501  07DF                     u1505:	
  2502  07DF  1C03               	skipc
  2503  07E0  2FE2               	goto	u1501
  2504  07E1  2FE3               	goto	u1500
  2505  07E2                     u1501:	
  2506  07E2  2FE9               	goto	l1606
  2507  07E3                     u1500:	
  2508  07E3                     l1604:	
  2509  07E3  0872               	movf	___lwmod@divisor,w
  2510  07E4  02F4               	subwf	___lwmod@dividend,f
  2511  07E5  0873               	movf	___lwmod@divisor+1,w
  2512  07E6  1C03               	skipc
  2513  07E7  03F5               	decf	___lwmod@dividend+1,f
  2514  07E8  02F5               	subwf	___lwmod@dividend+1,f
  2515  07E9                     l1606:	
  2516  07E9  3001               	movlw	1
  2517  07EA                     u1515:	
  2518  07EA  1003               	clrc
  2519  07EB  0CF3               	rrf	___lwmod@divisor+1,f
  2520  07EC  0CF2               	rrf	___lwmod@divisor,f
  2521  07ED  3EFF               	addlw	-1
  2522  07EE  1D03               	skipz
  2523  07EF  2FEA               	goto	u1515
  2524  07F0                     l1608:	
  2525  07F0  3001               	movlw	1
  2526  07F1  02F7               	subwf	___lwmod@counter,f
  2527  07F2  1D03               	btfss	3,2
  2528  07F3  2FF5               	goto	u1521
  2529  07F4  2FF6               	goto	u1520
  2530  07F5                     u1521:	
  2531  07F5  2FD9               	goto	l1602
  2532  07F6                     u1520:	
  2533  07F6                     l1610:	
  2534  07F6  0875               	movf	___lwmod@dividend+1,w
  2535  07F7  00F3               	movwf	?___lwmod+1
  2536  07F8  0874               	movf	___lwmod@dividend,w
  2537  07F9  00F2               	movwf	?___lwmod
  2538  07FA                     l543:	
  2539  07FA  0008               	return
  2540  07FB                     __end_of___lwmod:	
  2541                           
  2542                           	psect	text9
  2543  0CA9                     __ptext9:	
  2544 ;; *************** function ___lwdiv *****************
  2545 ;; Defined at:
  2546 ;;		line 5 in file "C:\Program Files (x86)\Microchip\xc8\v2.10\pic\sources\c90\common\lwdiv.c"
  2547 ;; Parameters:    Size  Location     Type
  2548 ;;  divisor         2    2[COMMON] unsigned int 
  2549 ;;  dividend        2    4[COMMON] unsigned int 
  2550 ;; Auto vars:     Size  Location     Type
  2551 ;;  quotient        2    7[COMMON] unsigned int 
  2552 ;;  counter         1    9[COMMON] unsigned char 
  2553 ;; Return value:  Size  Location     Type
  2554 ;;                  2    2[COMMON] unsigned int 
  2555 ;; Registers used:
  2556 ;;		wreg, status,2, status,0
  2557 ;; Tracked objects:
  2558 ;;		On entry : 0/0
  2559 ;;		On exit  : 0/0
  2560 ;;		Unchanged: 0/0
  2561 ;; Data sizes:     COMMON   BANK0   BANK1   BANK3   BANK2
  2562 ;;      Params:         4       0       0       0       0
  2563 ;;      Locals:         3       0       0       0       0
  2564 ;;      Temps:          1       0       0       0       0
  2565 ;;      Totals:         8       0       0       0       0
  2566 ;;Total ram usage:        8 bytes
  2567 ;; Hardware stack levels used:    1
  2568 ;; Hardware stack levels required when called:    1
  2569 ;; This function calls:
  2570 ;;		Nothing
  2571 ;; This function is called by:
  2572 ;;		_utoa
  2573 ;; This function uses a non-reentrant model
  2574 ;;
  2575                           
  2576                           
  2577                           ;psect for function ___lwdiv
  2578  0CA9                     ___lwdiv:	
  2579  0CA9                     l1566:	
  2580                           ;incstack = 0
  2581                           ; Regs used in ___lwdiv: [wreg+status,2+status,0]
  2582                           
  2583  0CA9  01F7               	clrf	___lwdiv@quotient
  2584  0CAA  01F8               	clrf	___lwdiv@quotient+1
  2585  0CAB                     l1568:	
  2586  0CAB  0872               	movf	___lwdiv@divisor,w
  2587  0CAC  0473               	iorwf	___lwdiv@divisor+1,w
  2588  0CAD  1903               	btfsc	3,2
  2589  0CAE  2CB0               	goto	u1401
  2590  0CAF  2CB1               	goto	u1400
  2591  0CB0                     u1401:	
  2592  0CB0  2CE8               	goto	l1588
  2593  0CB1                     u1400:	
  2594  0CB1                     l1570:	
  2595  0CB1  01F9               	clrf	___lwdiv@counter
  2596  0CB2  0AF9               	incf	___lwdiv@counter,f
  2597  0CB3  2CBF               	goto	l1576
  2598  0CB4                     l1572:	
  2599  0CB4  3001               	movlw	1
  2600  0CB5                     u1415:	
  2601  0CB5  1003               	clrc
  2602  0CB6  0DF2               	rlf	___lwdiv@divisor,f
  2603  0CB7  0DF3               	rlf	___lwdiv@divisor+1,f
  2604  0CB8  3EFF               	addlw	-1
  2605  0CB9  1D03               	skipz
  2606  0CBA  2CB5               	goto	u1415
  2607  0CBB                     l1574:	
  2608  0CBB  3001               	movlw	1
  2609  0CBC  00F6               	movwf	??___lwdiv
  2610  0CBD  0876               	movf	??___lwdiv,w
  2611  0CBE  07F9               	addwf	___lwdiv@counter,f
  2612  0CBF                     l1576:	
  2613  0CBF  1FF3               	btfss	___lwdiv@divisor+1,7
  2614  0CC0  2CC2               	goto	u1421
  2615  0CC1  2CC3               	goto	u1420
  2616  0CC2                     u1421:	
  2617  0CC2  2CB4               	goto	l1572
  2618  0CC3                     u1420:	
  2619  0CC3                     l1578:	
  2620  0CC3  3001               	movlw	1
  2621  0CC4                     u1435:	
  2622  0CC4  1003               	clrc
  2623  0CC5  0DF7               	rlf	___lwdiv@quotient,f
  2624  0CC6  0DF8               	rlf	___lwdiv@quotient+1,f
  2625  0CC7  3EFF               	addlw	-1
  2626  0CC8  1D03               	skipz
  2627  0CC9  2CC4               	goto	u1435
  2628  0CCA  0873               	movf	___lwdiv@divisor+1,w
  2629  0CCB  0275               	subwf	___lwdiv@dividend+1,w
  2630  0CCC  1D03               	skipz
  2631  0CCD  2CD0               	goto	u1445
  2632  0CCE  0872               	movf	___lwdiv@divisor,w
  2633  0CCF  0274               	subwf	___lwdiv@dividend,w
  2634  0CD0                     u1445:	
  2635  0CD0  1C03               	skipc
  2636  0CD1  2CD3               	goto	u1441
  2637  0CD2  2CD4               	goto	u1440
  2638  0CD3                     u1441:	
  2639  0CD3  2CDB               	goto	l1584
  2640  0CD4                     u1440:	
  2641  0CD4                     l1580:	
  2642  0CD4  0872               	movf	___lwdiv@divisor,w
  2643  0CD5  02F4               	subwf	___lwdiv@dividend,f
  2644  0CD6  0873               	movf	___lwdiv@divisor+1,w
  2645  0CD7  1C03               	skipc
  2646  0CD8  03F5               	decf	___lwdiv@dividend+1,f
  2647  0CD9  02F5               	subwf	___lwdiv@dividend+1,f
  2648  0CDA                     l1582:	
  2649  0CDA  1477               	bsf	___lwdiv@quotient,0
  2650  0CDB                     l1584:	
  2651  0CDB  3001               	movlw	1
  2652  0CDC                     u1455:	
  2653  0CDC  1003               	clrc
  2654  0CDD  0CF3               	rrf	___lwdiv@divisor+1,f
  2655  0CDE  0CF2               	rrf	___lwdiv@divisor,f
  2656  0CDF  3EFF               	addlw	-1
  2657  0CE0  1D03               	skipz
  2658  0CE1  2CDC               	goto	u1455
  2659  0CE2                     l1586:	
  2660  0CE2  3001               	movlw	1
  2661  0CE3  02F9               	subwf	___lwdiv@counter,f
  2662  0CE4  1D03               	btfss	3,2
  2663  0CE5  2CE7               	goto	u1461
  2664  0CE6  2CE8               	goto	u1460
  2665  0CE7                     u1461:	
  2666  0CE7  2CC3               	goto	l1578
  2667  0CE8                     u1460:	
  2668  0CE8                     l1588:	
  2669  0CE8  0878               	movf	___lwdiv@quotient+1,w
  2670  0CE9  00F3               	movwf	?___lwdiv+1
  2671  0CEA  0877               	movf	___lwdiv@quotient,w
  2672  0CEB  00F2               	movwf	?___lwdiv
  2673  0CEC                     l533:	
  2674  0CEC  0008               	return
  2675  0CED                     __end_of___lwdiv:	
  2676                           
  2677                           	psect	text10
  2678  0689                     __ptext10:	
  2679 ;; *************** function ___xxtofl *****************
  2680 ;; Defined at:
  2681 ;;		line 10 in file "C:\Program Files (x86)\Microchip\xc8\v2.10\pic\sources\c90\common\xxtofl.c"
  2682 ;; Parameters:    Size  Location     Type
  2683 ;;  sign            1    wreg     unsigned char 
  2684 ;;  val             4    2[COMMON] long 
  2685 ;; Auto vars:     Size  Location     Type
  2686 ;;  sign            1    0[BANK0 ] unsigned char 
  2687 ;;  arg             4    2[BANK0 ] unsigned long 
  2688 ;;  exp             1    1[BANK0 ] unsigned char 
  2689 ;; Return value:  Size  Location     Type
  2690 ;;                  4    2[COMMON] unsigned char 
  2691 ;; Registers used:
  2692 ;;		wreg, status,2, status,0
  2693 ;; Tracked objects:
  2694 ;;		On entry : 0/0
  2695 ;;		On exit  : 0/0
  2696 ;;		Unchanged: 0/0
  2697 ;; Data sizes:     COMMON   BANK0   BANK1   BANK3   BANK2
  2698 ;;      Params:         4       0       0       0       0
  2699 ;;      Locals:         0       6       0       0       0
  2700 ;;      Temps:          4       0       0       0       0
  2701 ;;      Totals:         8       6       0       0       0
  2702 ;;Total ram usage:       14 bytes
  2703 ;; Hardware stack levels used:    1
  2704 ;; Hardware stack levels required when called:    1
  2705 ;; This function calls:
  2706 ;;		Nothing
  2707 ;; This function is called by:
  2708 ;;		_ADC
  2709 ;; This function uses a non-reentrant model
  2710 ;;
  2711                           
  2712                           
  2713                           ;psect for function ___xxtofl
  2714  0689                     ___xxtofl:	
  2715                           
  2716                           ;incstack = 0
  2717                           ; Regs used in ___xxtofl: [wreg+status,2+status,0]
  2718                           ;___xxtofl@sign stored from wreg
  2719  0689  1283               	bcf	3,5	;RP0=0, select bank0
  2720  068A  1303               	bcf	3,6	;RP1=0, select bank0
  2721  068B  00A0               	movwf	___xxtofl@sign
  2722  068C                     l2116:	
  2723  068C  0820               	movf	___xxtofl@sign,w
  2724  068D  1903               	btfsc	3,2
  2725  068E  2E90               	goto	u2591
  2726  068F  2E91               	goto	u2590
  2727  0690                     u2591:	
  2728  0690  2EA5               	goto	l2122
  2729  0691                     u2590:	
  2730  0691                     l2118:	
  2731  0691  1FF5               	btfss	___xxtofl@val+3,7
  2732  0692  2E94               	goto	u2601
  2733  0693  2E95               	goto	u2600
  2734  0694                     u2601:	
  2735  0694  2EA5               	goto	l2122
  2736  0695                     u2600:	
  2737  0695                     l2120:	
  2738  0695  0972               	comf	___xxtofl@val,w
  2739  0696  00A2               	movwf	___xxtofl@arg
  2740  0697  0973               	comf	___xxtofl@val+1,w
  2741  0698  00A3               	movwf	___xxtofl@arg+1
  2742  0699  0974               	comf	___xxtofl@val+2,w
  2743  069A  00A4               	movwf	___xxtofl@arg+2
  2744  069B  0975               	comf	___xxtofl@val+3,w
  2745  069C  00A5               	movwf	___xxtofl@arg+3
  2746  069D  0AA2               	incf	___xxtofl@arg,f
  2747  069E  1903               	skipnz
  2748  069F  0AA3               	incf	___xxtofl@arg+1,f
  2749  06A0  1903               	skipnz
  2750  06A1  0AA4               	incf	___xxtofl@arg+2,f
  2751  06A2  1903               	skipnz
  2752  06A3  0AA5               	incf	___xxtofl@arg+3,f
  2753  06A4  2EAD               	goto	l688
  2754  06A5                     l2122:	
  2755  06A5  0875               	movf	___xxtofl@val+3,w
  2756  06A6  00A5               	movwf	___xxtofl@arg+3
  2757  06A7  0874               	movf	___xxtofl@val+2,w
  2758  06A8  00A4               	movwf	___xxtofl@arg+2
  2759  06A9  0873               	movf	___xxtofl@val+1,w
  2760  06AA  00A3               	movwf	___xxtofl@arg+1
  2761  06AB  0872               	movf	___xxtofl@val,w
  2762  06AC  00A2               	movwf	___xxtofl@arg
  2763  06AD                     l688:	
  2764  06AD  0875               	movf	___xxtofl@val+3,w
  2765  06AE  0474               	iorwf	___xxtofl@val+2,w
  2766  06AF  0473               	iorwf	___xxtofl@val+1,w
  2767  06B0  0472               	iorwf	___xxtofl@val,w
  2768  06B1  1D03               	skipz
  2769  06B2  2EB4               	goto	u2611
  2770  06B3  2EB5               	goto	u2610
  2771  06B4                     u2611:	
  2772  06B4  2EBE               	goto	l2128
  2773  06B5                     u2610:	
  2774  06B5                     l2124:	
  2775  06B5  3000               	movlw	0
  2776  06B6  00F5               	movwf	?___xxtofl+3
  2777  06B7  3000               	movlw	0
  2778  06B8  00F4               	movwf	?___xxtofl+2
  2779  06B9  3000               	movlw	0
  2780  06BA  00F3               	movwf	?___xxtofl+1
  2781  06BB  3000               	movlw	0
  2782  06BC  00F2               	movwf	?___xxtofl
  2783  06BD  2F44               	goto	l690
  2784  06BE                     l2128:	
  2785  06BE  3096               	movlw	150
  2786  06BF  00F6               	movwf	??___xxtofl
  2787  06C0  0876               	movf	??___xxtofl,w
  2788  06C1  00A1               	movwf	___xxtofl@exp
  2789  06C2  2ED0               	goto	l2132
  2790  06C3                     l2130:	
  2791  06C3  3001               	movlw	1
  2792  06C4  00F6               	movwf	??___xxtofl
  2793  06C5  0876               	movf	??___xxtofl,w
  2794  06C6  07A1               	addwf	___xxtofl@exp,f
  2795  06C7  3001               	movlw	1
  2796  06C8                     u2625:	
  2797  06C8  1003               	clrc
  2798  06C9  0CA5               	rrf	___xxtofl@arg+3,f
  2799  06CA  0CA4               	rrf	___xxtofl@arg+2,f
  2800  06CB  0CA3               	rrf	___xxtofl@arg+1,f
  2801  06CC  0CA2               	rrf	___xxtofl@arg,f
  2802  06CD  3EFF               	addlw	-1
  2803  06CE  1D03               	skipz
  2804  06CF  2EC8               	goto	u2625
  2805  06D0                     l2132:	
  2806  06D0  30FE               	movlw	254
  2807  06D1  0525               	andwf	___xxtofl@arg+3,w
  2808  06D2  1D03               	btfss	3,2
  2809  06D3  2ED5               	goto	u2631
  2810  06D4  2ED6               	goto	u2630
  2811  06D5                     u2631:	
  2812  06D5  2EC3               	goto	l2130
  2813  06D6                     u2630:	
  2814  06D6  2EF2               	goto	l694
  2815  06D7                     l2134:	
  2816  06D7  3001               	movlw	1
  2817  06D8  00F6               	movwf	??___xxtofl
  2818  06D9  0876               	movf	??___xxtofl,w
  2819  06DA  07A1               	addwf	___xxtofl@exp,f
  2820  06DB                     l2136:	
  2821  06DB  3001               	movlw	1
  2822  06DC  07A2               	addwf	___xxtofl@arg,f
  2823  06DD  3000               	movlw	0
  2824  06DE  1803               	skipnc
  2825  06DF  3001               	movlw	1
  2826  06E0  07A3               	addwf	___xxtofl@arg+1,f
  2827  06E1  3000               	movlw	0
  2828  06E2  1803               	skipnc
  2829  06E3  3001               	movlw	1
  2830  06E4  07A4               	addwf	___xxtofl@arg+2,f
  2831  06E5  3000               	movlw	0
  2832  06E6  1803               	skipnc
  2833  06E7  3001               	movlw	1
  2834  06E8  07A5               	addwf	___xxtofl@arg+3,f
  2835  06E9                     l2138:	
  2836  06E9  3001               	movlw	1
  2837  06EA                     u2645:	
  2838  06EA  1003               	clrc
  2839  06EB  0CA5               	rrf	___xxtofl@arg+3,f
  2840  06EC  0CA4               	rrf	___xxtofl@arg+2,f
  2841  06ED  0CA3               	rrf	___xxtofl@arg+1,f
  2842  06EE  0CA2               	rrf	___xxtofl@arg,f
  2843  06EF  3EFF               	addlw	-1
  2844  06F0  1D03               	skipz
  2845  06F1  2EEA               	goto	u2645
  2846  06F2                     l694:	
  2847  06F2  30FF               	movlw	255
  2848  06F3  0525               	andwf	___xxtofl@arg+3,w
  2849  06F4  1D03               	btfss	3,2
  2850  06F5  2EF7               	goto	u2651
  2851  06F6  2EF8               	goto	u2650
  2852  06F7                     u2651:	
  2853  06F7  2ED7               	goto	l2134
  2854  06F8                     u2650:	
  2855  06F8  2F04               	goto	l2142
  2856  06F9                     l2140:	
  2857  06F9  3001               	movlw	1
  2858  06FA  02A1               	subwf	___xxtofl@exp,f
  2859  06FB  3001               	movlw	1
  2860  06FC  00F6               	movwf	??___xxtofl
  2861  06FD                     u2665:	
  2862  06FD  1003               	clrc
  2863  06FE  0DA2               	rlf	___xxtofl@arg,f
  2864  06FF  0DA3               	rlf	___xxtofl@arg+1,f
  2865  0700  0DA4               	rlf	___xxtofl@arg+2,f
  2866  0701  0DA5               	rlf	___xxtofl@arg+3,f
  2867  0702  0BF6               	decfsz	??___xxtofl,f
  2868  0703  2EFD               	goto	u2665
  2869  0704                     l2142:	
  2870  0704  1BA4               	btfsc	___xxtofl@arg+2,7
  2871  0705  2F07               	goto	u2671
  2872  0706  2F08               	goto	u2670
  2873  0707                     u2671:	
  2874  0707  2F0E               	goto	l701
  2875  0708                     u2670:	
  2876  0708                     l2144:	
  2877  0708  3002               	movlw	2
  2878  0709  0221               	subwf	___xxtofl@exp,w
  2879  070A  1803               	skipnc
  2880  070B  2F0D               	goto	u2681
  2881  070C  2F0E               	goto	u2680
  2882  070D                     u2681:	
  2883  070D  2EF9               	goto	l2140
  2884  070E                     u2680:	
  2885  070E                     l701:	
  2886  070E  1821               	btfsc	___xxtofl@exp,0
  2887  070F  2F11               	goto	u2691
  2888  0710  2F12               	goto	u2690
  2889  0711                     u2691:	
  2890  0711  2F1A               	goto	l702
  2891  0712                     u2690:	
  2892  0712                     l2146:	
  2893  0712  30FF               	movlw	255
  2894  0713  05A2               	andwf	___xxtofl@arg,f
  2895  0714  30FF               	movlw	255
  2896  0715  05A3               	andwf	___xxtofl@arg+1,f
  2897  0716  307F               	movlw	127
  2898  0717  05A4               	andwf	___xxtofl@arg+2,f
  2899  0718  30FF               	movlw	255
  2900  0719  05A5               	andwf	___xxtofl@arg+3,f
  2901  071A                     l702:	
  2902  071A  1003               	clrc
  2903  071B  0CA1               	rrf	___xxtofl@exp,f
  2904  071C                     l2148:	
  2905  071C  0821               	movf	___xxtofl@exp,w
  2906  071D  00F6               	movwf	??___xxtofl
  2907  071E  01F7               	clrf	??___xxtofl+1
  2908  071F  01F8               	clrf	??___xxtofl+2
  2909  0720  01F9               	clrf	??___xxtofl+3
  2910  0721  3018               	movlw	24
  2911  0722                     u2705:	
  2912  0722  1003               	clrc
  2913  0723  0DF6               	rlf	??___xxtofl,f
  2914  0724  0DF7               	rlf	??___xxtofl+1,f
  2915  0725  0DF8               	rlf	??___xxtofl+2,f
  2916  0726  0DF9               	rlf	??___xxtofl+3,f
  2917  0727                     u2700:	
  2918  0727  3EFF               	addlw	-1
  2919  0728  1D03               	skipz
  2920  0729  2F22               	goto	u2705
  2921  072A  0876               	movf	??___xxtofl,w
  2922  072B  04A2               	iorwf	___xxtofl@arg,f
  2923  072C  0877               	movf	??___xxtofl+1,w
  2924  072D  04A3               	iorwf	___xxtofl@arg+1,f
  2925  072E  0878               	movf	??___xxtofl+2,w
  2926  072F  04A4               	iorwf	___xxtofl@arg+2,f
  2927  0730  0879               	movf	??___xxtofl+3,w
  2928  0731  04A5               	iorwf	___xxtofl@arg+3,f
  2929  0732                     l2150:	
  2930  0732  0820               	movf	___xxtofl@sign,w
  2931  0733  1903               	btfsc	3,2
  2932  0734  2F36               	goto	u2711
  2933  0735  2F37               	goto	u2710
  2934  0736                     u2711:	
  2935  0736  2F3C               	goto	l2156
  2936  0737                     u2710:	
  2937  0737                     l2152:	
  2938  0737  1FF5               	btfss	___xxtofl@val+3,7
  2939  0738  2F3A               	goto	u2721
  2940  0739  2F3B               	goto	u2720
  2941  073A                     u2721:	
  2942  073A  2F3C               	goto	l2156
  2943  073B                     u2720:	
  2944  073B                     l2154:	
  2945  073B  17A5               	bsf	___xxtofl@arg+3,7
  2946  073C                     l2156:	
  2947  073C  0825               	movf	___xxtofl@arg+3,w
  2948  073D  00F5               	movwf	?___xxtofl+3
  2949  073E  0824               	movf	___xxtofl@arg+2,w
  2950  073F  00F4               	movwf	?___xxtofl+2
  2951  0740  0823               	movf	___xxtofl@arg+1,w
  2952  0741  00F3               	movwf	?___xxtofl+1
  2953  0742  0822               	movf	___xxtofl@arg,w
  2954  0743  00F2               	movwf	?___xxtofl
  2955  0744                     l690:	
  2956  0744  0008               	return
  2957  0745                     __end_of___xxtofl:	
  2958                           
  2959                           	psect	text11
  2960  0745                     __ptext11:	
  2961 ;; *************** function ___fltol *****************
  2962 ;; Defined at:
  2963 ;;		line 43 in file "C:\Program Files (x86)\Microchip\xc8\v2.10\pic\sources\c90\common\fltol.c"
  2964 ;; Parameters:    Size  Location     Type
  2965 ;;  f1              4   32[BANK0 ] unsigned char 
  2966 ;; Auto vars:     Size  Location     Type
  2967 ;;  exp1            1   42[BANK0 ] unsigned char 
  2968 ;;  sign1           1   41[BANK0 ] unsigned char 
  2969 ;; Return value:  Size  Location     Type
  2970 ;;                  4   32[BANK0 ] long 
  2971 ;; Registers used:
  2972 ;;		wreg, status,2, status,0
  2973 ;; Tracked objects:
  2974 ;;		On entry : 0/0
  2975 ;;		On exit  : 0/0
  2976 ;;		Unchanged: 0/0
  2977 ;; Data sizes:     COMMON   BANK0   BANK1   BANK3   BANK2
  2978 ;;      Params:         0       4       0       0       0
  2979 ;;      Locals:         0       2       0       0       0
  2980 ;;      Temps:          0       5       0       0       0
  2981 ;;      Totals:         0      11       0       0       0
  2982 ;;Total ram usage:       11 bytes
  2983 ;; Hardware stack levels used:    1
  2984 ;; Hardware stack levels required when called:    1
  2985 ;; This function calls:
  2986 ;;		Nothing
  2987 ;; This function is called by:
  2988 ;;		_ADC
  2989 ;; This function uses a non-reentrant model
  2990 ;;
  2991                           
  2992                           
  2993                           ;psect for function ___fltol
  2994  0745                     ___fltol:	
  2995  0745                     l1798:	
  2996                           ;incstack = 0
  2997                           ; Regs used in ___fltol: [wreg+status,2+status,0]
  2998                           
  2999  0745  1003               	clrc
  3000  0746  1283               	bcf	3,5	;RP0=0, select bank0
  3001  0747  1303               	bcf	3,6	;RP1=0, select bank0
  3002  0748  0D42               	rlf	___fltol@f1+2,w
  3003  0749  0D43               	rlf	___fltol@f1+3,w
  3004  074A  00C4               	movwf	??___fltol
  3005  074B  0844               	movf	??___fltol,w
  3006  074C  00CA               	movwf	___fltol@exp1
  3007  074D  084A               	movf	___fltol@exp1,w
  3008  074E  1D03               	btfss	3,2
  3009  074F  2F51               	goto	u1831
  3010  0750  2F52               	goto	u1830
  3011  0751                     u1831:	
  3012  0751  2F5B               	goto	l1804
  3013  0752                     u1830:	
  3014  0752                     l1800:	
  3015  0752  3000               	movlw	0
  3016  0753  00C3               	movwf	?___fltol+3
  3017  0754  3000               	movlw	0
  3018  0755  00C2               	movwf	?___fltol+2
  3019  0756  3000               	movlw	0
  3020  0757  00C1               	movwf	?___fltol+1
  3021  0758  3000               	movlw	0
  3022  0759  00C0               	movwf	?___fltol
  3023  075A  2FC0               	goto	l447
  3024  075B                     l1804:	
  3025  075B  0840               	movf	___fltol@f1,w
  3026  075C  00C4               	movwf	??___fltol
  3027  075D  0841               	movf	___fltol@f1+1,w
  3028  075E  00C5               	movwf	??___fltol+1
  3029  075F  0842               	movf	___fltol@f1+2,w
  3030  0760  00C6               	movwf	??___fltol+2
  3031  0761  0843               	movf	___fltol@f1+3,w
  3032  0762  00C7               	movwf	??___fltol+3
  3033  0763  301F               	movlw	31
  3034  0764                     u1845:	
  3035  0764  1003               	clrc
  3036  0765  0CC7               	rrf	??___fltol+3,f
  3037  0766  0CC6               	rrf	??___fltol+2,f
  3038  0767  0CC5               	rrf	??___fltol+1,f
  3039  0768  0CC4               	rrf	??___fltol,f
  3040  0769                     u1840:	
  3041  0769  3EFF               	addlw	-1
  3042  076A  1D03               	skipz
  3043  076B  2F64               	goto	u1845
  3044  076C  0844               	movf	??___fltol,w
  3045  076D  00C8               	movwf	??___fltol+4
  3046  076E  0848               	movf	??___fltol+4,w
  3047  076F  00C9               	movwf	___fltol@sign1
  3048  0770                     l1806:	
  3049  0770  17C2               	bsf	___fltol@f1+2,7
  3050  0771                     l1808:	
  3051  0771  30FF               	movlw	255
  3052  0772  05C0               	andwf	___fltol@f1,f
  3053  0773  30FF               	movlw	255
  3054  0774  05C1               	andwf	___fltol@f1+1,f
  3055  0775  30FF               	movlw	255
  3056  0776  05C2               	andwf	___fltol@f1+2,f
  3057  0777  3000               	movlw	0
  3058  0778  05C3               	andwf	___fltol@f1+3,f
  3059  0779                     l1810:	
  3060  0779  3096               	movlw	150
  3061  077A  02CA               	subwf	___fltol@exp1,f
  3062  077B                     l1812:	
  3063  077B  1FCA               	btfss	___fltol@exp1,7
  3064  077C  2F7E               	goto	u1851
  3065  077D  2F7F               	goto	u1850
  3066  077E                     u1851:	
  3067  077E  2F99               	goto	l1822
  3068  077F                     u1850:	
  3069  077F                     l1814:	
  3070  077F  084A               	movf	___fltol@exp1,w
  3071  0780  3A80               	xorlw	128
  3072  0781  3E97               	addlw	151
  3073  0782  1803               	skipnc
  3074  0783  2F85               	goto	u1861
  3075  0784  2F86               	goto	u1860
  3076  0785                     u1861:	
  3077  0785  2F87               	goto	l1820
  3078  0786                     u1860:	
  3079  0786  2F52               	goto	l1800
  3080  0787                     l1820:	
  3081  0787  3001               	movlw	1
  3082  0788                     u1875:	
  3083  0788  1003               	clrc
  3084  0789  0CC3               	rrf	___fltol@f1+3,f
  3085  078A  0CC2               	rrf	___fltol@f1+2,f
  3086  078B  0CC1               	rrf	___fltol@f1+1,f
  3087  078C  0CC0               	rrf	___fltol@f1,f
  3088  078D  3EFF               	addlw	-1
  3089  078E  1D03               	skipz
  3090  078F  2F88               	goto	u1875
  3091  0790  3001               	movlw	1
  3092  0791  00C4               	movwf	??___fltol
  3093  0792  0844               	movf	??___fltol,w
  3094  0793  07CA               	addwf	___fltol@exp1,f
  3095  0794  1D03               	btfss	3,2
  3096  0795  2F97               	goto	u1881
  3097  0796  2F98               	goto	u1880
  3098  0797                     u1881:	
  3099  0797  2F87               	goto	l1820
  3100  0798                     u1880:	
  3101  0798  2FB0               	goto	l1830
  3102  0799                     l1822:	
  3103  0799  3020               	movlw	32
  3104  079A  024A               	subwf	___fltol@exp1,w
  3105  079B  1C03               	skipc
  3106  079C  2F9E               	goto	u1891
  3107  079D  2F9F               	goto	u1890
  3108  079E                     u1891:	
  3109  079E  2FAB               	goto	l454
  3110  079F                     u1890:	
  3111  079F  2F52               	goto	l1800
  3112  07A0                     l1828:	
  3113  07A0  3001               	movlw	1
  3114  07A1  00C4               	movwf	??___fltol
  3115  07A2                     u1905:	
  3116  07A2  1003               	clrc
  3117  07A3  0DC0               	rlf	___fltol@f1,f
  3118  07A4  0DC1               	rlf	___fltol@f1+1,f
  3119  07A5  0DC2               	rlf	___fltol@f1+2,f
  3120  07A6  0DC3               	rlf	___fltol@f1+3,f
  3121  07A7  0BC4               	decfsz	??___fltol,f
  3122  07A8  2FA2               	goto	u1905
  3123  07A9  3001               	movlw	1
  3124  07AA  02CA               	subwf	___fltol@exp1,f
  3125  07AB                     l454:	
  3126  07AB  084A               	movf	___fltol@exp1,w
  3127  07AC  1D03               	btfss	3,2
  3128  07AD  2FAF               	goto	u1911
  3129  07AE  2FB0               	goto	u1910
  3130  07AF                     u1911:	
  3131  07AF  2FA0               	goto	l1828
  3132  07B0                     u1910:	
  3133  07B0                     l1830:	
  3134  07B0  0849               	movf	___fltol@sign1,w
  3135  07B1  1903               	btfsc	3,2
  3136  07B2  2FB4               	goto	u1921
  3137  07B3  2FB5               	goto	u1920
  3138  07B4                     u1921:	
  3139  07B4  2FC0               	goto	l457
  3140  07B5                     u1920:	
  3141  07B5                     l1832:	
  3142  07B5  09C0               	comf	___fltol@f1,f
  3143  07B6  09C1               	comf	___fltol@f1+1,f
  3144  07B7  09C2               	comf	___fltol@f1+2,f
  3145  07B8  09C3               	comf	___fltol@f1+3,f
  3146  07B9  0AC0               	incf	___fltol@f1,f
  3147  07BA  1903               	skipnz
  3148  07BB  0AC1               	incf	___fltol@f1+1,f
  3149  07BC  1903               	skipnz
  3150  07BD  0AC2               	incf	___fltol@f1+2,f
  3151  07BE  1903               	skipnz
  3152  07BF  0AC3               	incf	___fltol@f1+3,f
  3153  07C0                     l457:	
  3154  07C0                     l447:	
  3155  07C0  0008               	return
  3156  07C1                     __end_of___fltol:	
  3157                           
  3158                           	psect	text12
  3159  0026                     __ptext12:	
  3160 ;; *************** function ___flmul *****************
  3161 ;; Defined at:
  3162 ;;		line 8 in file "C:\Program Files (x86)\Microchip\xc8\v2.10\pic\sources\c90\common\sprcmul.c"
  3163 ;; Parameters:    Size  Location     Type
  3164 ;;  b               4    6[BANK0 ] long 
  3165 ;;  a               4   10[BANK0 ] long 
  3166 ;; Auto vars:     Size  Location     Type
  3167 ;;  prod            4   26[BANK0 ] struct .
  3168 ;;  grs             4   21[BANK0 ] unsigned long 
  3169 ;;  temp            2   30[BANK0 ] struct .
  3170 ;;  bexp            1   25[BANK0 ] unsigned char 
  3171 ;;  aexp            1   20[BANK0 ] unsigned char 
  3172 ;;  sign            1   19[BANK0 ] unsigned char 
  3173 ;; Return value:  Size  Location     Type
  3174 ;;                  4    6[BANK0 ] unsigned char 
  3175 ;; Registers used:
  3176 ;;		wreg, status,2, status,0, btemp+1, pclath, cstack
  3177 ;; Tracked objects:
  3178 ;;		On entry : 0/0
  3179 ;;		On exit  : 0/0
  3180 ;;		Unchanged: 0/0
  3181 ;; Data sizes:     COMMON   BANK0   BANK1   BANK3   BANK2
  3182 ;;      Params:         0       8       0       0       0
  3183 ;;      Locals:         0      13       0       0       0
  3184 ;;      Temps:          0       5       0       0       0
  3185 ;;      Totals:         0      26       0       0       0
  3186 ;;Total ram usage:       26 bytes
  3187 ;; Hardware stack levels used:    1
  3188 ;; Hardware stack levels required when called:    2
  3189 ;; This function calls:
  3190 ;;		__Umul8_16
  3191 ;; This function is called by:
  3192 ;;		_ADC
  3193 ;; This function uses a non-reentrant model
  3194 ;;
  3195                           
  3196                           
  3197                           ;psect for function ___flmul
  3198  0026                     ___flmul:	
  3199  0026                     l2402:	
  3200                           ;incstack = 0
  3201                           ; Regs used in ___flmul: [wreg+status,2+status,0+btemp+1+pclath+cstack]
  3202                           
  3203  0026  1283               	bcf	3,5	;RP0=0, select bank0
  3204  0027  1303               	bcf	3,6	;RP1=0, select bank0
  3205  0028  0829               	movf	___flmul@b+3,w
  3206  0029  3980               	andlw	128
  3207  002A  00AE               	movwf	??___flmul
  3208  002B  082E               	movf	??___flmul,w
  3209  002C  00B3               	movwf	___flmul@sign
  3210  002D                     l2404:	
  3211  002D  0829               	movf	___flmul@b+3,w
  3212  002E  00AE               	movwf	??___flmul
  3213  002F  072E               	addwf	??___flmul,w
  3214  0030  00AF               	movwf	??___flmul+1
  3215  0031  082F               	movf	??___flmul+1,w
  3216  0032  00B9               	movwf	___flmul@bexp
  3217  0033                     l2406:	
  3218  0033  1FA8               	btfss	___flmul@b+2,7
  3219  0034  2836               	goto	u3011
  3220  0035  2837               	goto	u3010
  3221  0036                     u3011:	
  3222  0036  2838               	goto	l2410
  3223  0037                     u3010:	
  3224  0037                     l2408:	
  3225  0037  1439               	bsf	___flmul@bexp,0
  3226  0038                     l2410:	
  3227  0038  0839               	movf	___flmul@bexp,w
  3228  0039  1903               	btfsc	3,2
  3229  003A  283C               	goto	u3021
  3230  003B  283D               	goto	u3020
  3231  003C                     u3021:	
  3232  003C  284C               	goto	l2418
  3233  003D                     u3020:	
  3234  003D                     l2412:	
  3235  003D  0A39               	incf	___flmul@bexp,w
  3236  003E  1D03               	btfss	3,2
  3237  003F  2841               	goto	u3031
  3238  0040  2842               	goto	u3030
  3239  0041                     u3031:	
  3240  0041  284A               	goto	l2416
  3241  0042                     u3030:	
  3242  0042                     l2414:	
  3243  0042  3000               	movlw	0
  3244  0043  00A9               	movwf	___flmul@b+3
  3245  0044  3000               	movlw	0
  3246  0045  00A8               	movwf	___flmul@b+2
  3247  0046  3000               	movlw	0
  3248  0047  00A7               	movwf	___flmul@b+1
  3249  0048  3000               	movlw	0
  3250  0049  00A6               	movwf	___flmul@b
  3251  004A                     l2416:	
  3252  004A  17A8               	bsf	___flmul@b+2,7
  3253  004B  2854               	goto	l2420
  3254  004C                     l2418:	
  3255  004C  3000               	movlw	0
  3256  004D  00A9               	movwf	___flmul@b+3
  3257  004E  3000               	movlw	0
  3258  004F  00A8               	movwf	___flmul@b+2
  3259  0050  3000               	movlw	0
  3260  0051  00A7               	movwf	___flmul@b+1
  3261  0052  3000               	movlw	0
  3262  0053  00A6               	movwf	___flmul@b
  3263  0054                     l2420:	
  3264  0054  082D               	movf	___flmul@a+3,w
  3265  0055  3980               	andlw	128
  3266  0056  00AE               	movwf	??___flmul
  3267  0057  082E               	movf	??___flmul,w
  3268  0058  06B3               	xorwf	___flmul@sign,f
  3269  0059                     l2422:	
  3270  0059  082D               	movf	___flmul@a+3,w
  3271  005A  00AE               	movwf	??___flmul
  3272  005B  072E               	addwf	??___flmul,w
  3273  005C  00AF               	movwf	??___flmul+1
  3274  005D  082F               	movf	??___flmul+1,w
  3275  005E  00B4               	movwf	___flmul@aexp
  3276  005F                     l2424:	
  3277  005F  1FAC               	btfss	___flmul@a+2,7
  3278  0060  2862               	goto	u3041
  3279  0061  2863               	goto	u3040
  3280  0062                     u3041:	
  3281  0062  2864               	goto	l2428
  3282  0063                     u3040:	
  3283  0063                     l2426:	
  3284  0063  1434               	bsf	___flmul@aexp,0
  3285  0064                     l2428:	
  3286  0064  0834               	movf	___flmul@aexp,w
  3287  0065  1903               	btfsc	3,2
  3288  0066  2868               	goto	u3051
  3289  0067  2869               	goto	u3050
  3290  0068                     u3051:	
  3291  0068  2878               	goto	l2436
  3292  0069                     u3050:	
  3293  0069                     l2430:	
  3294  0069  0A34               	incf	___flmul@aexp,w
  3295  006A  1D03               	btfss	3,2
  3296  006B  286D               	goto	u3061
  3297  006C  286E               	goto	u3060
  3298  006D                     u3061:	
  3299  006D  2876               	goto	l2434
  3300  006E                     u3060:	
  3301  006E                     l2432:	
  3302  006E  3000               	movlw	0
  3303  006F  00AD               	movwf	___flmul@a+3
  3304  0070  3000               	movlw	0
  3305  0071  00AC               	movwf	___flmul@a+2
  3306  0072  3000               	movlw	0
  3307  0073  00AB               	movwf	___flmul@a+1
  3308  0074  3000               	movlw	0
  3309  0075  00AA               	movwf	___flmul@a
  3310  0076                     l2434:	
  3311  0076  17AC               	bsf	___flmul@a+2,7
  3312  0077  2880               	goto	l2438
  3313  0078                     l2436:	
  3314  0078  3000               	movlw	0
  3315  0079  00AD               	movwf	___flmul@a+3
  3316  007A  3000               	movlw	0
  3317  007B  00AC               	movwf	___flmul@a+2
  3318  007C  3000               	movlw	0
  3319  007D  00AB               	movwf	___flmul@a+1
  3320  007E  3000               	movlw	0
  3321  007F  00AA               	movwf	___flmul@a
  3322  0080                     l2438:	
  3323  0080  0834               	movf	___flmul@aexp,w
  3324  0081  1903               	btfsc	3,2
  3325  0082  2884               	goto	u3071
  3326  0083  2885               	goto	u3070
  3327  0084                     u3071:	
  3328  0084  288A               	goto	l2442
  3329  0085                     u3070:	
  3330  0085                     l2440:	
  3331  0085  0839               	movf	___flmul@bexp,w
  3332  0086  1D03               	btfss	3,2
  3333  0087  2889               	goto	u3081
  3334  0088  288A               	goto	u3080
  3335  0089                     u3081:	
  3336  0089  2893               	goto	l2446
  3337  008A                     u3080:	
  3338  008A                     l2442:	
  3339  008A  3000               	movlw	0
  3340  008B  00A9               	movwf	?___flmul+3
  3341  008C  3000               	movlw	0
  3342  008D  00A8               	movwf	?___flmul+2
  3343  008E  3000               	movlw	0
  3344  008F  00A7               	movwf	?___flmul+1
  3345  0090  3000               	movlw	0
  3346  0091  00A6               	movwf	?___flmul
  3347  0092  2B86               	goto	l650
  3348  0093                     l2446:	
  3349  0093  0826               	movf	___flmul@b,w
  3350  0094  00AE               	movwf	??___flmul
  3351  0095  082E               	movf	??___flmul,w
  3352  0096  00F2               	movwf	__Umul8_16@multiplicand
  3353  0097  082C               	movf	___flmul@a+2,w
  3354  0098  120A  158A  2457  120A  118A  	fcall	__Umul8_16
  3355  009D  0873               	movf	?__Umul8_16+1,w
  3356  009E  1283               	bcf	3,5	;RP0=0, select bank0
  3357  009F  1303               	bcf	3,6	;RP1=0, select bank0
  3358  00A0  00BF               	movwf	___flmul@temp+1
  3359  00A1  0872               	movf	?__Umul8_16,w
  3360  00A2  00BE               	movwf	___flmul@temp
  3361  00A3                     l2448:	
  3362  00A3  083E               	movf	___flmul@temp,w
  3363  00A4  00AE               	movwf	??___flmul
  3364  00A5  01AF               	clrf	??___flmul+1
  3365  00A6  01B0               	clrf	??___flmul+2
  3366  00A7  01B1               	clrf	??___flmul+3
  3367  00A8  0831               	movf	??___flmul+3,w
  3368  00A9  00B8               	movwf	___flmul@grs+3
  3369  00AA  0830               	movf	??___flmul+2,w
  3370  00AB  00B7               	movwf	___flmul@grs+2
  3371  00AC  082F               	movf	??___flmul+1,w
  3372  00AD  00B6               	movwf	___flmul@grs+1
  3373  00AE  082E               	movf	??___flmul,w
  3374  00AF  00B5               	movwf	___flmul@grs
  3375  00B0                     l2450:	
  3376  00B0  083F               	movf	___flmul@temp+1,w
  3377  00B1  00AE               	movwf	??___flmul
  3378  00B2  01AF               	clrf	??___flmul+1
  3379  00B3  01B0               	clrf	??___flmul+2
  3380  00B4  01B1               	clrf	??___flmul+3
  3381  00B5  0831               	movf	??___flmul+3,w
  3382  00B6  00BD               	movwf	___flmul@prod+3
  3383  00B7  0830               	movf	??___flmul+2,w
  3384  00B8  00BC               	movwf	___flmul@prod+2
  3385  00B9  082F               	movf	??___flmul+1,w
  3386  00BA  00BB               	movwf	___flmul@prod+1
  3387  00BB  082E               	movf	??___flmul,w
  3388  00BC  00BA               	movwf	___flmul@prod
  3389  00BD  0827               	movf	___flmul@b+1,w
  3390  00BE  00AE               	movwf	??___flmul
  3391  00BF  082E               	movf	??___flmul,w
  3392  00C0  00F2               	movwf	__Umul8_16@multiplicand
  3393  00C1  082B               	movf	___flmul@a+1,w
  3394  00C2  120A  158A  2457  120A  118A  	fcall	__Umul8_16
  3395  00C7  0873               	movf	?__Umul8_16+1,w
  3396  00C8  1283               	bcf	3,5	;RP0=0, select bank0
  3397  00C9  1303               	bcf	3,6	;RP1=0, select bank0
  3398  00CA  00BF               	movwf	___flmul@temp+1
  3399  00CB  0872               	movf	?__Umul8_16,w
  3400  00CC  00BE               	movwf	___flmul@temp
  3401  00CD                     l2452:	
  3402  00CD  083E               	movf	___flmul@temp,w
  3403  00CE  00AE               	movwf	??___flmul
  3404  00CF  01AF               	clrf	??___flmul+1
  3405  00D0  01B0               	clrf	??___flmul+2
  3406  00D1  01B1               	clrf	??___flmul+3
  3407  00D2  082E               	movf	??___flmul,w
  3408  00D3  07B5               	addwf	___flmul@grs,f
  3409  00D4  082F               	movf	??___flmul+1,w
  3410  00D5  1103               	clrz
  3411  00D6  1803               	skipnc
  3412  00D7  3E01               	addlw	1
  3413  00D8  1903               	skipnz
  3414  00D9  28DB               	goto	u3091
  3415  00DA  07B6               	addwf	___flmul@grs+1,f
  3416  00DB                     u3091:	
  3417  00DB  0830               	movf	??___flmul+2,w
  3418  00DC  1103               	clrz
  3419  00DD  1803               	skipnc
  3420  00DE  3E01               	addlw	1
  3421  00DF  1903               	skipnz
  3422  00E0  28E2               	goto	u3092
  3423  00E1  07B7               	addwf	___flmul@grs+2,f
  3424  00E2                     u3092:	
  3425  00E2  0831               	movf	??___flmul+3,w
  3426  00E3  1103               	clrz
  3427  00E4  1803               	skipnc
  3428  00E5  3E01               	addlw	1
  3429  00E6  1903               	skipnz
  3430  00E7  28E9               	goto	u3093
  3431  00E8  07B8               	addwf	___flmul@grs+3,f
  3432  00E9                     u3093:	
  3433  00E9                     l2454:	
  3434  00E9  083F               	movf	___flmul@temp+1,w
  3435  00EA  00AE               	movwf	??___flmul
  3436  00EB  01AF               	clrf	??___flmul+1
  3437  00EC  01B0               	clrf	??___flmul+2
  3438  00ED  01B1               	clrf	??___flmul+3
  3439  00EE  082E               	movf	??___flmul,w
  3440  00EF  07BA               	addwf	___flmul@prod,f
  3441  00F0  082F               	movf	??___flmul+1,w
  3442  00F1  1103               	clrz
  3443  00F2  1803               	skipnc
  3444  00F3  3E01               	addlw	1
  3445  00F4  1903               	skipnz
  3446  00F5  28F7               	goto	u3101
  3447  00F6  07BB               	addwf	___flmul@prod+1,f
  3448  00F7                     u3101:	
  3449  00F7  0830               	movf	??___flmul+2,w
  3450  00F8  1103               	clrz
  3451  00F9  1803               	skipnc
  3452  00FA  3E01               	addlw	1
  3453  00FB  1903               	skipnz
  3454  00FC  28FE               	goto	u3102
  3455  00FD  07BC               	addwf	___flmul@prod+2,f
  3456  00FE                     u3102:	
  3457  00FE  0831               	movf	??___flmul+3,w
  3458  00FF  1103               	clrz
  3459  0100  1803               	skipnc
  3460  0101  3E01               	addlw	1
  3461  0102  1903               	skipnz
  3462  0103  2905               	goto	u3103
  3463  0104  07BD               	addwf	___flmul@prod+3,f
  3464  0105                     u3103:	
  3465  0105  0828               	movf	___flmul@b+2,w
  3466  0106  00AE               	movwf	??___flmul
  3467  0107  082E               	movf	??___flmul,w
  3468  0108  00F2               	movwf	__Umul8_16@multiplicand
  3469  0109  082A               	movf	___flmul@a,w
  3470  010A  120A  158A  2457  120A  118A  	fcall	__Umul8_16
  3471  010F  0873               	movf	?__Umul8_16+1,w
  3472  0110  1283               	bcf	3,5	;RP0=0, select bank0
  3473  0111  1303               	bcf	3,6	;RP1=0, select bank0
  3474  0112  00BF               	movwf	___flmul@temp+1
  3475  0113  0872               	movf	?__Umul8_16,w
  3476  0114  00BE               	movwf	___flmul@temp
  3477  0115                     l2456:	
  3478  0115  083E               	movf	___flmul@temp,w
  3479  0116  00AE               	movwf	??___flmul
  3480  0117  01AF               	clrf	??___flmul+1
  3481  0118  01B0               	clrf	??___flmul+2
  3482  0119  01B1               	clrf	??___flmul+3
  3483  011A  082E               	movf	??___flmul,w
  3484  011B  07B5               	addwf	___flmul@grs,f
  3485  011C  082F               	movf	??___flmul+1,w
  3486  011D  1103               	clrz
  3487  011E  1803               	skipnc
  3488  011F  3E01               	addlw	1
  3489  0120  1903               	skipnz
  3490  0121  2923               	goto	u3111
  3491  0122  07B6               	addwf	___flmul@grs+1,f
  3492  0123                     u3111:	
  3493  0123  0830               	movf	??___flmul+2,w
  3494  0124  1103               	clrz
  3495  0125  1803               	skipnc
  3496  0126  3E01               	addlw	1
  3497  0127  1903               	skipnz
  3498  0128  292A               	goto	u3112
  3499  0129  07B7               	addwf	___flmul@grs+2,f
  3500  012A                     u3112:	
  3501  012A  0831               	movf	??___flmul+3,w
  3502  012B  1103               	clrz
  3503  012C  1803               	skipnc
  3504  012D  3E01               	addlw	1
  3505  012E  1903               	skipnz
  3506  012F  2931               	goto	u3113
  3507  0130  07B8               	addwf	___flmul@grs+3,f
  3508  0131                     u3113:	
  3509  0131                     l2458:	
  3510  0131  083F               	movf	___flmul@temp+1,w
  3511  0132  00AE               	movwf	??___flmul
  3512  0133  01AF               	clrf	??___flmul+1
  3513  0134  01B0               	clrf	??___flmul+2
  3514  0135  01B1               	clrf	??___flmul+3
  3515  0136  082E               	movf	??___flmul,w
  3516  0137  07BA               	addwf	___flmul@prod,f
  3517  0138  082F               	movf	??___flmul+1,w
  3518  0139  1103               	clrz
  3519  013A  1803               	skipnc
  3520  013B  3E01               	addlw	1
  3521  013C  1903               	skipnz
  3522  013D  293F               	goto	u3121
  3523  013E  07BB               	addwf	___flmul@prod+1,f
  3524  013F                     u3121:	
  3525  013F  0830               	movf	??___flmul+2,w
  3526  0140  1103               	clrz
  3527  0141  1803               	skipnc
  3528  0142  3E01               	addlw	1
  3529  0143  1903               	skipnz
  3530  0144  2946               	goto	u3122
  3531  0145  07BC               	addwf	___flmul@prod+2,f
  3532  0146                     u3122:	
  3533  0146  0831               	movf	??___flmul+3,w
  3534  0147  1103               	clrz
  3535  0148  1803               	skipnc
  3536  0149  3E01               	addlw	1
  3537  014A  1903               	skipnz
  3538  014B  294D               	goto	u3123
  3539  014C  07BD               	addwf	___flmul@prod+3,f
  3540  014D                     u3123:	
  3541  014D                     l2460:	
  3542  014D  3008               	movlw	8
  3543  014E  00AE               	movwf	??___flmul
  3544  014F                     u3135:	
  3545  014F  1003               	clrc
  3546  0150  0DB5               	rlf	___flmul@grs,f
  3547  0151  0DB6               	rlf	___flmul@grs+1,f
  3548  0152  0DB7               	rlf	___flmul@grs+2,f
  3549  0153  0DB8               	rlf	___flmul@grs+3,f
  3550  0154  0BAE               	decfsz	??___flmul,f
  3551  0155  294F               	goto	u3135
  3552  0156                     l2462:	
  3553  0156  0827               	movf	___flmul@b+1,w
  3554  0157  00AE               	movwf	??___flmul
  3555  0158  082E               	movf	??___flmul,w
  3556  0159  00F2               	movwf	__Umul8_16@multiplicand
  3557  015A  082A               	movf	___flmul@a,w
  3558  015B  120A  158A  2457  120A  118A  	fcall	__Umul8_16
  3559  0160  0873               	movf	?__Umul8_16+1,w
  3560  0161  1283               	bcf	3,5	;RP0=0, select bank0
  3561  0162  1303               	bcf	3,6	;RP1=0, select bank0
  3562  0163  00BF               	movwf	___flmul@temp+1
  3563  0164  0872               	movf	?__Umul8_16,w
  3564  0165  00BE               	movwf	___flmul@temp
  3565  0166                     l2464:	
  3566  0166  083E               	movf	___flmul@temp,w
  3567  0167  00AE               	movwf	??___flmul
  3568  0168  083F               	movf	___flmul@temp+1,w
  3569  0169  00AF               	movwf	??___flmul+1
  3570  016A  01B0               	clrf	??___flmul+2
  3571  016B  01B1               	clrf	??___flmul+3
  3572  016C  082E               	movf	??___flmul,w
  3573  016D  07B5               	addwf	___flmul@grs,f
  3574  016E  082F               	movf	??___flmul+1,w
  3575  016F  1103               	clrz
  3576  0170  1803               	skipnc
  3577  0171  3E01               	addlw	1
  3578  0172  1903               	skipnz
  3579  0173  2975               	goto	u3141
  3580  0174  07B6               	addwf	___flmul@grs+1,f
  3581  0175                     u3141:	
  3582  0175  0830               	movf	??___flmul+2,w
  3583  0176  1103               	clrz
  3584  0177  1803               	skipnc
  3585  0178  3E01               	addlw	1
  3586  0179  1903               	skipnz
  3587  017A  297C               	goto	u3142
  3588  017B  07B7               	addwf	___flmul@grs+2,f
  3589  017C                     u3142:	
  3590  017C  0831               	movf	??___flmul+3,w
  3591  017D  1103               	clrz
  3592  017E  1803               	skipnc
  3593  017F  3E01               	addlw	1
  3594  0180  1903               	skipnz
  3595  0181  2983               	goto	u3143
  3596  0182  07B8               	addwf	___flmul@grs+3,f
  3597  0183                     u3143:	
  3598  0183                     l2466:	
  3599  0183  0826               	movf	___flmul@b,w
  3600  0184  00AE               	movwf	??___flmul
  3601  0185  082E               	movf	??___flmul,w
  3602  0186  00F2               	movwf	__Umul8_16@multiplicand
  3603  0187  082B               	movf	___flmul@a+1,w
  3604  0188  120A  158A  2457  120A  118A  	fcall	__Umul8_16
  3605  018D  0873               	movf	?__Umul8_16+1,w
  3606  018E  1283               	bcf	3,5	;RP0=0, select bank0
  3607  018F  1303               	bcf	3,6	;RP1=0, select bank0
  3608  0190  00BF               	movwf	___flmul@temp+1
  3609  0191  0872               	movf	?__Umul8_16,w
  3610  0192  00BE               	movwf	___flmul@temp
  3611  0193                     l2468:	
  3612  0193  083E               	movf	___flmul@temp,w
  3613  0194  00AE               	movwf	??___flmul
  3614  0195  083F               	movf	___flmul@temp+1,w
  3615  0196  00AF               	movwf	??___flmul+1
  3616  0197  01B0               	clrf	??___flmul+2
  3617  0198  01B1               	clrf	??___flmul+3
  3618  0199  082E               	movf	??___flmul,w
  3619  019A  07B5               	addwf	___flmul@grs,f
  3620  019B  082F               	movf	??___flmul+1,w
  3621  019C  1103               	clrz
  3622  019D  1803               	skipnc
  3623  019E  3E01               	addlw	1
  3624  019F  1903               	skipnz
  3625  01A0  29A2               	goto	u3151
  3626  01A1  07B6               	addwf	___flmul@grs+1,f
  3627  01A2                     u3151:	
  3628  01A2  0830               	movf	??___flmul+2,w
  3629  01A3  1103               	clrz
  3630  01A4  1803               	skipnc
  3631  01A5  3E01               	addlw	1
  3632  01A6  1903               	skipnz
  3633  01A7  29A9               	goto	u3152
  3634  01A8  07B7               	addwf	___flmul@grs+2,f
  3635  01A9                     u3152:	
  3636  01A9  0831               	movf	??___flmul+3,w
  3637  01AA  1103               	clrz
  3638  01AB  1803               	skipnc
  3639  01AC  3E01               	addlw	1
  3640  01AD  1903               	skipnz
  3641  01AE  29B0               	goto	u3153
  3642  01AF  07B8               	addwf	___flmul@grs+3,f
  3643  01B0                     u3153:	
  3644  01B0                     l2470:	
  3645  01B0  3008               	movlw	8
  3646  01B1  00AE               	movwf	??___flmul
  3647  01B2                     u3165:	
  3648  01B2  1003               	clrc
  3649  01B3  0DB5               	rlf	___flmul@grs,f
  3650  01B4  0DB6               	rlf	___flmul@grs+1,f
  3651  01B5  0DB7               	rlf	___flmul@grs+2,f
  3652  01B6  0DB8               	rlf	___flmul@grs+3,f
  3653  01B7  0BAE               	decfsz	??___flmul,f
  3654  01B8  29B2               	goto	u3165
  3655  01B9  0826               	movf	___flmul@b,w
  3656  01BA  00AE               	movwf	??___flmul
  3657  01BB  082E               	movf	??___flmul,w
  3658  01BC  00F2               	movwf	__Umul8_16@multiplicand
  3659  01BD  082A               	movf	___flmul@a,w
  3660  01BE  120A  158A  2457  120A  118A  	fcall	__Umul8_16
  3661  01C3  0873               	movf	?__Umul8_16+1,w
  3662  01C4  1283               	bcf	3,5	;RP0=0, select bank0
  3663  01C5  1303               	bcf	3,6	;RP1=0, select bank0
  3664  01C6  00BF               	movwf	___flmul@temp+1
  3665  01C7  0872               	movf	?__Umul8_16,w
  3666  01C8  00BE               	movwf	___flmul@temp
  3667  01C9                     l2472:	
  3668  01C9  083E               	movf	___flmul@temp,w
  3669  01CA  00AE               	movwf	??___flmul
  3670  01CB  083F               	movf	___flmul@temp+1,w
  3671  01CC  00AF               	movwf	??___flmul+1
  3672  01CD  01B0               	clrf	??___flmul+2
  3673  01CE  01B1               	clrf	??___flmul+3
  3674  01CF  082E               	movf	??___flmul,w
  3675  01D0  07B5               	addwf	___flmul@grs,f
  3676  01D1  082F               	movf	??___flmul+1,w
  3677  01D2  1103               	clrz
  3678  01D3  1803               	skipnc
  3679  01D4  3E01               	addlw	1
  3680  01D5  1903               	skipnz
  3681  01D6  29D8               	goto	u3171
  3682  01D7  07B6               	addwf	___flmul@grs+1,f
  3683  01D8                     u3171:	
  3684  01D8  0830               	movf	??___flmul+2,w
  3685  01D9  1103               	clrz
  3686  01DA  1803               	skipnc
  3687  01DB  3E01               	addlw	1
  3688  01DC  1903               	skipnz
  3689  01DD  29DF               	goto	u3172
  3690  01DE  07B7               	addwf	___flmul@grs+2,f
  3691  01DF                     u3172:	
  3692  01DF  0831               	movf	??___flmul+3,w
  3693  01E0  1103               	clrz
  3694  01E1  1803               	skipnc
  3695  01E2  3E01               	addlw	1
  3696  01E3  1903               	skipnz
  3697  01E4  29E6               	goto	u3173
  3698  01E5  07B8               	addwf	___flmul@grs+3,f
  3699  01E6                     u3173:	
  3700  01E6                     l2474:	
  3701  01E6  0827               	movf	___flmul@b+1,w
  3702  01E7  00AE               	movwf	??___flmul
  3703  01E8  082E               	movf	??___flmul,w
  3704  01E9  00F2               	movwf	__Umul8_16@multiplicand
  3705  01EA  082C               	movf	___flmul@a+2,w
  3706  01EB  120A  158A  2457  120A  118A  	fcall	__Umul8_16
  3707  01F0  0873               	movf	?__Umul8_16+1,w
  3708  01F1  1283               	bcf	3,5	;RP0=0, select bank0
  3709  01F2  1303               	bcf	3,6	;RP1=0, select bank0
  3710  01F3  00BF               	movwf	___flmul@temp+1
  3711  01F4  0872               	movf	?__Umul8_16,w
  3712  01F5  00BE               	movwf	___flmul@temp
  3713  01F6  083E               	movf	___flmul@temp,w
  3714  01F7  00AE               	movwf	??___flmul
  3715  01F8  083F               	movf	___flmul@temp+1,w
  3716  01F9  00AF               	movwf	??___flmul+1
  3717  01FA  01B0               	clrf	??___flmul+2
  3718  01FB  01B1               	clrf	??___flmul+3
  3719  01FC  082E               	movf	??___flmul,w
  3720  01FD  07BA               	addwf	___flmul@prod,f
  3721  01FE  082F               	movf	??___flmul+1,w
  3722  01FF  1103               	clrz
  3723  0200  1803               	skipnc
  3724  0201  3E01               	addlw	1
  3725  0202  1903               	skipnz
  3726  0203  2A05               	goto	u3181
  3727  0204  07BB               	addwf	___flmul@prod+1,f
  3728  0205                     u3181:	
  3729  0205  0830               	movf	??___flmul+2,w
  3730  0206  1103               	clrz
  3731  0207  1803               	skipnc
  3732  0208  3E01               	addlw	1
  3733  0209  1903               	skipnz
  3734  020A  2A0C               	goto	u3182
  3735  020B  07BC               	addwf	___flmul@prod+2,f
  3736  020C                     u3182:	
  3737  020C  0831               	movf	??___flmul+3,w
  3738  020D  1103               	clrz
  3739  020E  1803               	skipnc
  3740  020F  3E01               	addlw	1
  3741  0210  1903               	skipnz
  3742  0211  2A13               	goto	u3183
  3743  0212  07BD               	addwf	___flmul@prod+3,f
  3744  0213                     u3183:	
  3745  0213                     l2476:	
  3746  0213  0828               	movf	___flmul@b+2,w
  3747  0214  00AE               	movwf	??___flmul
  3748  0215  082E               	movf	??___flmul,w
  3749  0216  00F2               	movwf	__Umul8_16@multiplicand
  3750  0217  082B               	movf	___flmul@a+1,w
  3751  0218  120A  158A  2457  120A  118A  	fcall	__Umul8_16
  3752  021D  0873               	movf	?__Umul8_16+1,w
  3753  021E  1283               	bcf	3,5	;RP0=0, select bank0
  3754  021F  1303               	bcf	3,6	;RP1=0, select bank0
  3755  0220  00BF               	movwf	___flmul@temp+1
  3756  0221  0872               	movf	?__Umul8_16,w
  3757  0222  00BE               	movwf	___flmul@temp
  3758  0223                     l2478:	
  3759  0223  083E               	movf	___flmul@temp,w
  3760  0224  00AE               	movwf	??___flmul
  3761  0225  083F               	movf	___flmul@temp+1,w
  3762  0226  00AF               	movwf	??___flmul+1
  3763  0227  01B0               	clrf	??___flmul+2
  3764  0228  01B1               	clrf	??___flmul+3
  3765  0229  082E               	movf	??___flmul,w
  3766  022A  07BA               	addwf	___flmul@prod,f
  3767  022B  082F               	movf	??___flmul+1,w
  3768  022C  1103               	clrz
  3769  022D  1803               	skipnc
  3770  022E  3E01               	addlw	1
  3771  022F  1903               	skipnz
  3772  0230  2A32               	goto	u3191
  3773  0231  07BB               	addwf	___flmul@prod+1,f
  3774  0232                     u3191:	
  3775  0232  0830               	movf	??___flmul+2,w
  3776  0233  1103               	clrz
  3777  0234  1803               	skipnc
  3778  0235  3E01               	addlw	1
  3779  0236  1903               	skipnz
  3780  0237  2A39               	goto	u3192
  3781  0238  07BC               	addwf	___flmul@prod+2,f
  3782  0239                     u3192:	
  3783  0239  0831               	movf	??___flmul+3,w
  3784  023A  1103               	clrz
  3785  023B  1803               	skipnc
  3786  023C  3E01               	addlw	1
  3787  023D  1903               	skipnz
  3788  023E  2A40               	goto	u3193
  3789  023F  07BD               	addwf	___flmul@prod+3,f
  3790  0240                     u3193:	
  3791  0240  0828               	movf	___flmul@b+2,w
  3792  0241  00AE               	movwf	??___flmul
  3793  0242  082E               	movf	??___flmul,w
  3794  0243  00F2               	movwf	__Umul8_16@multiplicand
  3795  0244  082C               	movf	___flmul@a+2,w
  3796  0245  120A  158A  2457  120A  118A  	fcall	__Umul8_16
  3797  024A  0873               	movf	?__Umul8_16+1,w
  3798  024B  1283               	bcf	3,5	;RP0=0, select bank0
  3799  024C  1303               	bcf	3,6	;RP1=0, select bank0
  3800  024D  00BF               	movwf	___flmul@temp+1
  3801  024E  0872               	movf	?__Umul8_16,w
  3802  024F  00BE               	movwf	___flmul@temp
  3803  0250                     l2480:	
  3804  0250  083E               	movf	___flmul@temp,w
  3805  0251  00AE               	movwf	??___flmul
  3806  0252  083F               	movf	___flmul@temp+1,w
  3807  0253  00AF               	movwf	??___flmul+1
  3808  0254  01B0               	clrf	??___flmul+2
  3809  0255  01B1               	clrf	??___flmul+3
  3810  0256  3008               	movlw	8
  3811  0257                     u3205:	
  3812  0257  1003               	clrc
  3813  0258  0DAE               	rlf	??___flmul,f
  3814  0259  0DAF               	rlf	??___flmul+1,f
  3815  025A  0DB0               	rlf	??___flmul+2,f
  3816  025B  0DB1               	rlf	??___flmul+3,f
  3817  025C                     u3200:	
  3818  025C  3EFF               	addlw	-1
  3819  025D  1D03               	skipz
  3820  025E  2A57               	goto	u3205
  3821  025F  082E               	movf	??___flmul,w
  3822  0260  07BA               	addwf	___flmul@prod,f
  3823  0261  082F               	movf	??___flmul+1,w
  3824  0262  1103               	clrz
  3825  0263  1803               	skipnc
  3826  0264  3E01               	addlw	1
  3827  0265  1903               	skipnz
  3828  0266  2A68               	goto	u3211
  3829  0267  07BB               	addwf	___flmul@prod+1,f
  3830  0268                     u3211:	
  3831  0268  0830               	movf	??___flmul+2,w
  3832  0269  1103               	clrz
  3833  026A  1803               	skipnc
  3834  026B  3E01               	addlw	1
  3835  026C  1903               	skipnz
  3836  026D  2A6F               	goto	u3212
  3837  026E  07BC               	addwf	___flmul@prod+2,f
  3838  026F                     u3212:	
  3839  026F  0831               	movf	??___flmul+3,w
  3840  0270  1103               	clrz
  3841  0271  1803               	skipnc
  3842  0272  3E01               	addlw	1
  3843  0273  1903               	skipnz
  3844  0274  2A76               	goto	u3213
  3845  0275  07BD               	addwf	___flmul@prod+3,f
  3846  0276                     u3213:	
  3847  0276                     l2482:	
  3848  0276  0835               	movf	___flmul@grs,w
  3849  0277  00AE               	movwf	??___flmul
  3850  0278  0836               	movf	___flmul@grs+1,w
  3851  0279  00AF               	movwf	??___flmul+1
  3852  027A  0837               	movf	___flmul@grs+2,w
  3853  027B  00B0               	movwf	??___flmul+2
  3854  027C  0838               	movf	___flmul@grs+3,w
  3855  027D  00B1               	movwf	??___flmul+3
  3856  027E  3018               	movlw	24
  3857  027F                     u3225:	
  3858  027F  1003               	clrc
  3859  0280  0CB1               	rrf	??___flmul+3,f
  3860  0281  0CB0               	rrf	??___flmul+2,f
  3861  0282  0CAF               	rrf	??___flmul+1,f
  3862  0283  0CAE               	rrf	??___flmul,f
  3863  0284                     u3220:	
  3864  0284  3EFF               	addlw	-1
  3865  0285  1D03               	skipz
  3866  0286  2A7F               	goto	u3225
  3867  0287  082E               	movf	??___flmul,w
  3868  0288  07BA               	addwf	___flmul@prod,f
  3869  0289  082F               	movf	??___flmul+1,w
  3870  028A  1103               	clrz
  3871  028B  1803               	skipnc
  3872  028C  3E01               	addlw	1
  3873  028D  1903               	skipnz
  3874  028E  2A90               	goto	u3231
  3875  028F  07BB               	addwf	___flmul@prod+1,f
  3876  0290                     u3231:	
  3877  0290  0830               	movf	??___flmul+2,w
  3878  0291  1103               	clrz
  3879  0292  1803               	skipnc
  3880  0293  3E01               	addlw	1
  3881  0294  1903               	skipnz
  3882  0295  2A97               	goto	u3232
  3883  0296  07BC               	addwf	___flmul@prod+2,f
  3884  0297                     u3232:	
  3885  0297  0831               	movf	??___flmul+3,w
  3886  0298  1103               	clrz
  3887  0299  1803               	skipnc
  3888  029A  3E01               	addlw	1
  3889  029B  1903               	skipnz
  3890  029C  2A9E               	goto	u3233
  3891  029D  07BD               	addwf	___flmul@prod+3,f
  3892  029E                     u3233:	
  3893  029E                     l2484:	
  3894  029E  3008               	movlw	8
  3895  029F  00AE               	movwf	??___flmul
  3896  02A0                     u3245:	
  3897  02A0  1003               	clrc
  3898  02A1  0DB5               	rlf	___flmul@grs,f
  3899  02A2  0DB6               	rlf	___flmul@grs+1,f
  3900  02A3  0DB7               	rlf	___flmul@grs+2,f
  3901  02A4  0DB8               	rlf	___flmul@grs+3,f
  3902  02A5  0BAE               	decfsz	??___flmul,f
  3903  02A6  2AA0               	goto	u3245
  3904  02A7                     l2486:	
  3905  02A7  0839               	movf	___flmul@bexp,w
  3906  02A8  0734               	addwf	___flmul@aexp,w
  3907  02A9  00AE               	movwf	??___flmul
  3908  02AA  01AF               	clrf	??___flmul+1
  3909  02AB  0DAF               	rlf	??___flmul+1,f
  3910  02AC  082E               	movf	??___flmul,w
  3911  02AD  3E82               	addlw	130
  3912  02AE  00BE               	movwf	___flmul@temp
  3913  02AF  082F               	movf	??___flmul+1,w
  3914  02B0  1803               	skipnc
  3915  02B1  3E01               	addlw	1
  3916  02B2  3EFF               	addlw	255
  3917  02B3  00BF               	movwf	___flmul@temp+1
  3918  02B4  2AD2               	goto	l2498
  3919  02B5                     l2488:	
  3920  02B5  3001               	movlw	1
  3921  02B6  00AE               	movwf	??___flmul
  3922  02B7                     u3255:	
  3923  02B7  1003               	clrc
  3924  02B8  0DBA               	rlf	___flmul@prod,f
  3925  02B9  0DBB               	rlf	___flmul@prod+1,f
  3926  02BA  0DBC               	rlf	___flmul@prod+2,f
  3927  02BB  0DBD               	rlf	___flmul@prod+3,f
  3928  02BC  0BAE               	decfsz	??___flmul,f
  3929  02BD  2AB7               	goto	u3255
  3930  02BE                     l2490:	
  3931  02BE  1FB8               	btfss	___flmul@grs+3,7
  3932  02BF  2AC1               	goto	u3261
  3933  02C0  2AC2               	goto	u3260
  3934  02C1                     u3261:	
  3935  02C1  2AC3               	goto	l2494
  3936  02C2                     u3260:	
  3937  02C2                     l2492:	
  3938  02C2  143A               	bsf	___flmul@prod,0
  3939  02C3                     l2494:	
  3940  02C3  3001               	movlw	1
  3941  02C4  00AE               	movwf	??___flmul
  3942  02C5                     u3275:	
  3943  02C5  1003               	clrc
  3944  02C6  0DB5               	rlf	___flmul@grs,f
  3945  02C7  0DB6               	rlf	___flmul@grs+1,f
  3946  02C8  0DB7               	rlf	___flmul@grs+2,f
  3947  02C9  0DB8               	rlf	___flmul@grs+3,f
  3948  02CA  0BAE               	decfsz	??___flmul,f
  3949  02CB  2AC5               	goto	u3275
  3950  02CC                     l2496:	
  3951  02CC  30FF               	movlw	255
  3952  02CD  07BE               	addwf	___flmul@temp,f
  3953  02CE  1803               	skipnc
  3954  02CF  0ABF               	incf	___flmul@temp+1,f
  3955  02D0  30FF               	movlw	255
  3956  02D1  07BF               	addwf	___flmul@temp+1,f
  3957  02D2                     l2498:	
  3958  02D2  1FBC               	btfss	___flmul@prod+2,7
  3959  02D3  2AD5               	goto	u3281
  3960  02D4  2AD6               	goto	u3280
  3961  02D5                     u3281:	
  3962  02D5  2AB5               	goto	l2488
  3963  02D6                     u3280:	
  3964  02D6                     l2500:	
  3965  02D6  01B4               	clrf	___flmul@aexp
  3966  02D7                     l2502:	
  3967  02D7  1FB8               	btfss	___flmul@grs+3,7
  3968  02D8  2ADA               	goto	u3291
  3969  02D9  2ADB               	goto	u3290
  3970  02DA                     u3291:	
  3971  02DA  2AF7               	goto	l2510
  3972  02DB                     u3290:	
  3973  02DB                     l2504:	
  3974  02DB  30FF               	movlw	255
  3975  02DC  0535               	andwf	___flmul@grs,w
  3976  02DD  00AE               	movwf	??___flmul
  3977  02DE  30FF               	movlw	255
  3978  02DF  0536               	andwf	___flmul@grs+1,w
  3979  02E0  00AF               	movwf	??___flmul+1
  3980  02E1  30FF               	movlw	255
  3981  02E2  0537               	andwf	___flmul@grs+2,w
  3982  02E3  00B0               	movwf	??___flmul+2
  3983  02E4  307F               	movlw	127
  3984  02E5  0538               	andwf	___flmul@grs+3,w
  3985  02E6  00B1               	movwf	??___flmul+3
  3986  02E7  0831               	movf	??___flmul+3,w
  3987  02E8  0430               	iorwf	??___flmul+2,w
  3988  02E9  042F               	iorwf	??___flmul+1,w
  3989  02EA  042E               	iorwf	??___flmul,w
  3990  02EB  1903               	skipnz
  3991  02EC  2AEE               	goto	u3301
  3992  02ED  2AEF               	goto	u3300
  3993  02EE                     u3301:	
  3994  02EE  2AF2               	goto	l656
  3995  02EF                     u3300:	
  3996  02EF                     l2506:	
  3997  02EF  01B4               	clrf	___flmul@aexp
  3998  02F0  0AB4               	incf	___flmul@aexp,f
  3999  02F1  2AF7               	goto	l2510
  4000  02F2                     l656:	
  4001  02F2  1C3A               	btfss	___flmul@prod,0
  4002  02F3  2AF5               	goto	u3311
  4003  02F4  2AF6               	goto	u3310
  4004  02F5                     u3311:	
  4005  02F5  2AF7               	goto	l2510
  4006  02F6                     u3310:	
  4007  02F6  2AEF               	goto	l2506
  4008  02F7                     l2510:	
  4009  02F7  0834               	movf	___flmul@aexp,w
  4010  02F8  1903               	btfsc	3,2
  4011  02F9  2AFB               	goto	u3321
  4012  02FA  2AFC               	goto	u3320
  4013  02FB                     u3321:	
  4014  02FB  2B2D               	goto	l2520
  4015  02FC                     u3320:	
  4016  02FC                     l2512:	
  4017  02FC  3001               	movlw	1
  4018  02FD  07BA               	addwf	___flmul@prod,f
  4019  02FE  3000               	movlw	0
  4020  02FF  1803               	skipnc
  4021  0300  3001               	movlw	1
  4022  0301  07BB               	addwf	___flmul@prod+1,f
  4023  0302  3000               	movlw	0
  4024  0303  1803               	skipnc
  4025  0304  3001               	movlw	1
  4026  0305  07BC               	addwf	___flmul@prod+2,f
  4027  0306  3000               	movlw	0
  4028  0307  1803               	skipnc
  4029  0308  3001               	movlw	1
  4030  0309  07BD               	addwf	___flmul@prod+3,f
  4031  030A                     l2514:	
  4032  030A  1C3D               	btfss	___flmul@prod+3,0
  4033  030B  2B0D               	goto	u3331
  4034  030C  2B0E               	goto	u3330
  4035  030D                     u3331:	
  4036  030D  2B2D               	goto	l2520
  4037  030E                     u3330:	
  4038  030E                     l2516:	
  4039  030E  083A               	movf	___flmul@prod,w
  4040  030F  00AE               	movwf	??___flmul
  4041  0310  083B               	movf	___flmul@prod+1,w
  4042  0311  00AF               	movwf	??___flmul+1
  4043  0312  083C               	movf	___flmul@prod+2,w
  4044  0313  00B0               	movwf	??___flmul+2
  4045  0314  083D               	movf	___flmul@prod+3,w
  4046  0315  00B1               	movwf	??___flmul+3
  4047  0316  3001               	movlw	1
  4048  0317  00B2               	movwf	??___flmul+4
  4049  0318                     u3345:	
  4050  0318  0D31               	rlf	??___flmul+3,w
  4051  0319  0CB1               	rrf	??___flmul+3,f
  4052  031A  0CB0               	rrf	??___flmul+2,f
  4053  031B  0CAF               	rrf	??___flmul+1,f
  4054  031C  0CAE               	rrf	??___flmul,f
  4055  031D                     u3340:	
  4056  031D  0BB2               	decfsz	??___flmul+4,f
  4057  031E  2B18               	goto	u3345
  4058  031F  0831               	movf	??___flmul+3,w
  4059  0320  00BD               	movwf	___flmul@prod+3
  4060  0321  0830               	movf	??___flmul+2,w
  4061  0322  00BC               	movwf	___flmul@prod+2
  4062  0323  082F               	movf	??___flmul+1,w
  4063  0324  00BB               	movwf	___flmul@prod+1
  4064  0325  082E               	movf	??___flmul,w
  4065  0326  00BA               	movwf	___flmul@prod
  4066  0327                     l2518:	
  4067  0327  3001               	movlw	1
  4068  0328  07BE               	addwf	___flmul@temp,f
  4069  0329  1803               	skipnc
  4070  032A  0ABF               	incf	___flmul@temp+1,f
  4071  032B  3000               	movlw	0
  4072  032C  07BF               	addwf	___flmul@temp+1,f
  4073  032D                     l2520:	
  4074  032D  083F               	movf	___flmul@temp+1,w
  4075  032E  3A80               	xorlw	128
  4076  032F  00FF               	movwf	btemp+1
  4077  0330  3080               	movlw	128
  4078  0331  027F               	subwf	btemp+1,w
  4079  0332  1D03               	skipz
  4080  0333  2B36               	goto	u3355
  4081  0334  30FF               	movlw	255
  4082  0335  023E               	subwf	___flmul@temp,w
  4083  0336                     u3355:	
  4084  0336  1C03               	skipc
  4085  0337  2B39               	goto	u3351
  4086  0338  2B3A               	goto	u3350
  4087  0339                     u3351:	
  4088  0339  2B45               	goto	l2524
  4089  033A                     u3350:	
  4090  033A                     l2522:	
  4091  033A  307F               	movlw	127
  4092  033B  1283               	bcf	3,5	;RP0=0, select bank0
  4093  033C  1303               	bcf	3,6	;RP1=0, select bank0
  4094  033D  00BD               	movwf	___flmul@prod+3
  4095  033E  3080               	movlw	128
  4096  033F  00BC               	movwf	___flmul@prod+2
  4097  0340  3000               	movlw	0
  4098  0341  00BB               	movwf	___flmul@prod+1
  4099  0342  3000               	movlw	0
  4100  0343  00BA               	movwf	___flmul@prod
  4101  0344  2B7A               	goto	l662
  4102  0345                     l2524:	
  4103  0345  1283               	bcf	3,5	;RP0=0, select bank0
  4104  0346  1303               	bcf	3,6	;RP1=0, select bank0
  4105  0347  083F               	movf	___flmul@temp+1,w
  4106  0348  3A80               	xorlw	128
  4107  0349  00FF               	movwf	btemp+1
  4108  034A  3080               	movlw	128
  4109  034B  027F               	subwf	btemp+1,w
  4110  034C  1D03               	skipz
  4111  034D  2B50               	goto	u3365
  4112  034E  3001               	movlw	1
  4113  034F  023E               	subwf	___flmul@temp,w
  4114  0350                     u3365:	
  4115  0350  1803               	skipnc
  4116  0351  2B53               	goto	u3361
  4117  0352  2B54               	goto	u3360
  4118  0353                     u3361:	
  4119  0353  2B60               	goto	l2530
  4120  0354                     u3360:	
  4121  0354                     l2526:	
  4122  0354  3000               	movlw	0
  4123  0355  1283               	bcf	3,5	;RP0=0, select bank0
  4124  0356  1303               	bcf	3,6	;RP1=0, select bank0
  4125  0357  00BD               	movwf	___flmul@prod+3
  4126  0358  3000               	movlw	0
  4127  0359  00BC               	movwf	___flmul@prod+2
  4128  035A  3000               	movlw	0
  4129  035B  00BB               	movwf	___flmul@prod+1
  4130  035C  3000               	movlw	0
  4131  035D  00BA               	movwf	___flmul@prod
  4132  035E                     l2528:	
  4133  035E  01B3               	clrf	___flmul@sign
  4134  035F  2B7A               	goto	l662
  4135  0360                     l2530:	
  4136  0360  1283               	bcf	3,5	;RP0=0, select bank0
  4137  0361  1303               	bcf	3,6	;RP1=0, select bank0
  4138  0362  083E               	movf	___flmul@temp,w
  4139  0363  00AE               	movwf	??___flmul
  4140  0364  082E               	movf	??___flmul,w
  4141  0365  00B9               	movwf	___flmul@bexp
  4142  0366  30FF               	movlw	255
  4143  0367  05BA               	andwf	___flmul@prod,f
  4144  0368  30FF               	movlw	255
  4145  0369  05BB               	andwf	___flmul@prod+1,f
  4146  036A  307F               	movlw	127
  4147  036B  05BC               	andwf	___flmul@prod+2,f
  4148  036C  3000               	movlw	0
  4149  036D  05BD               	andwf	___flmul@prod+3,f
  4150  036E                     l2532:	
  4151  036E  1C39               	btfss	___flmul@bexp,0
  4152  036F  2B71               	goto	u3371
  4153  0370  2B72               	goto	u3370
  4154  0371                     u3371:	
  4155  0371  2B73               	goto	l2536
  4156  0372                     u3370:	
  4157  0372                     l2534:	
  4158  0372  17BC               	bsf	___flmul@prod+2,7
  4159  0373                     l2536:	
  4160  0373  0839               	movf	___flmul@bexp,w
  4161  0374  00AE               	movwf	??___flmul
  4162  0375  1003               	clrc
  4163  0376  0C2E               	rrf	??___flmul,w
  4164  0377  00AF               	movwf	??___flmul+1
  4165  0378  082F               	movf	??___flmul+1,w
  4166  0379  00BD               	movwf	___flmul@prod+3
  4167  037A                     l662:	
  4168  037A  0833               	movf	___flmul@sign,w
  4169  037B  00AE               	movwf	??___flmul
  4170  037C  082E               	movf	??___flmul,w
  4171  037D  04BD               	iorwf	___flmul@prod+3,f
  4172  037E                     l2538:	
  4173  037E  083D               	movf	___flmul@prod+3,w
  4174  037F  00A9               	movwf	?___flmul+3
  4175  0380  083C               	movf	___flmul@prod+2,w
  4176  0381  00A8               	movwf	?___flmul+2
  4177  0382  083B               	movf	___flmul@prod+1,w
  4178  0383  00A7               	movwf	?___flmul+1
  4179  0384  083A               	movf	___flmul@prod,w
  4180  0385  00A6               	movwf	?___flmul
  4181  0386                     l650:	
  4182  0386  0008               	return
  4183  0387                     __end_of___flmul:	
  4184                           
  4185                           	psect	text13
  4186  0C57                     __ptext13:	
  4187 ;; *************** function __Umul8_16 *****************
  4188 ;; Defined at:
  4189 ;;		line 4 in file "C:\Program Files (x86)\Microchip\xc8\v2.10\pic\sources\c90\common\Umul8_16.c"
  4190 ;; Parameters:    Size  Location     Type
  4191 ;;  multiplier      1    wreg     unsigned char 
  4192 ;;  multiplicand    1    2[COMMON] unsigned char 
  4193 ;; Auto vars:     Size  Location     Type
  4194 ;;  multiplier      1    4[BANK0 ] unsigned char 
  4195 ;;  word_mpld       2    2[BANK0 ] unsigned int 
  4196 ;;  product         2    0[BANK0 ] unsigned int 
  4197 ;; Return value:  Size  Location     Type
  4198 ;;                  2    2[COMMON] unsigned int 
  4199 ;; Registers used:
  4200 ;;		wreg, status,2, status,0
  4201 ;; Tracked objects:
  4202 ;;		On entry : 0/0
  4203 ;;		On exit  : 0/0
  4204 ;;		Unchanged: 0/0
  4205 ;; Data sizes:     COMMON   BANK0   BANK1   BANK3   BANK2
  4206 ;;      Params:         2       0       0       0       0
  4207 ;;      Locals:         0       5       0       0       0
  4208 ;;      Temps:          2       0       0       0       0
  4209 ;;      Totals:         4       5       0       0       0
  4210 ;;Total ram usage:        9 bytes
  4211 ;; Hardware stack levels used:    1
  4212 ;; Hardware stack levels required when called:    1
  4213 ;; This function calls:
  4214 ;;		Nothing
  4215 ;; This function is called by:
  4216 ;;		___flmul
  4217 ;; This function uses a non-reentrant model
  4218 ;;
  4219                           
  4220                           
  4221                           ;psect for function __Umul8_16
  4222  0C57                     __Umul8_16:	
  4223                           
  4224                           ;incstack = 0
  4225                           ; Regs used in __Umul8_16: [wreg+status,2+status,0]
  4226                           ;__Umul8_16@multiplier stored from wreg
  4227  0C57  1283               	bcf	3,5	;RP0=0, select bank0
  4228  0C58  1303               	bcf	3,6	;RP1=0, select bank0
  4229  0C59  00A4               	movwf	__Umul8_16@multiplier
  4230  0C5A                     l2262:	
  4231  0C5A  01A0               	clrf	__Umul8_16@product
  4232  0C5B  01A1               	clrf	__Umul8_16@product+1
  4233  0C5C                     l2264:	
  4234  0C5C  0872               	movf	__Umul8_16@multiplicand,w
  4235  0C5D  00F4               	movwf	??__Umul8_16
  4236  0C5E  01F5               	clrf	??__Umul8_16+1
  4237  0C5F  0874               	movf	??__Umul8_16,w
  4238  0C60  00A2               	movwf	__Umul8_16@word_mpld
  4239  0C61  0875               	movf	??__Umul8_16+1,w
  4240  0C62  00A3               	movwf	__Umul8_16@word_mpld+1
  4241  0C63                     l2266:	
  4242  0C63  1C24               	btfss	__Umul8_16@multiplier,0
  4243  0C64  2C66               	goto	u2751
  4244  0C65  2C67               	goto	u2750
  4245  0C66                     u2751:	
  4246  0C66  2C6D               	goto	l736
  4247  0C67                     u2750:	
  4248  0C67                     l2268:	
  4249  0C67  0822               	movf	__Umul8_16@word_mpld,w
  4250  0C68  07A0               	addwf	__Umul8_16@product,f
  4251  0C69  1803               	skipnc
  4252  0C6A  0AA1               	incf	__Umul8_16@product+1,f
  4253  0C6B  0823               	movf	__Umul8_16@word_mpld+1,w
  4254  0C6C  07A1               	addwf	__Umul8_16@product+1,f
  4255  0C6D                     l736:	
  4256  0C6D  3001               	movlw	1
  4257  0C6E                     u2765:	
  4258  0C6E  1003               	clrc
  4259  0C6F  0DA2               	rlf	__Umul8_16@word_mpld,f
  4260  0C70  0DA3               	rlf	__Umul8_16@word_mpld+1,f
  4261  0C71  3EFF               	addlw	-1
  4262  0C72  1D03               	skipz
  4263  0C73  2C6E               	goto	u2765
  4264  0C74  1003               	clrc
  4265  0C75  0CA4               	rrf	__Umul8_16@multiplier,f
  4266  0C76                     l2270:	
  4267  0C76  0824               	movf	__Umul8_16@multiplier,w
  4268  0C77  1D03               	btfss	3,2
  4269  0C78  2C7A               	goto	u2771
  4270  0C79  2C7B               	goto	u2770
  4271  0C7A                     u2771:	
  4272  0C7A  2C63               	goto	l2266
  4273  0C7B                     u2770:	
  4274  0C7B                     l2272:	
  4275  0C7B  0821               	movf	__Umul8_16@product+1,w
  4276  0C7C  00F3               	movwf	?__Umul8_16+1
  4277  0C7D  0820               	movf	__Umul8_16@product,w
  4278  0C7E  00F2               	movwf	?__Umul8_16
  4279  0C7F                     l738:	
  4280  0C7F  0008               	return
  4281  0C80                     __end_of__Umul8_16:	
  4282                           
  4283                           	psect	text14
  4284  0E23                     __ptext14:	
  4285 ;; *************** function ___fldiv *****************
  4286 ;; Defined at:
  4287 ;;		line 8 in file "C:\Program Files (x86)\Microchip\xc8\v2.10\pic\sources\c90\common\sprcdiv.c"
  4288 ;; Parameters:    Size  Location     Type
  4289 ;;  a               4   32[BANK0 ] unsigned int 
  4290 ;;  b               4   36[BANK0 ] unsigned int 
  4291 ;; Auto vars:     Size  Location     Type
  4292 ;;  grs             4   52[BANK0 ] unsigned long 
  4293 ;;  rem             4   45[BANK0 ] unsigned long 
  4294 ;;  new_exp         2   50[BANK0 ] int 
  4295 ;;  aexp            1   57[BANK0 ] unsigned char 
  4296 ;;  bexp            1   56[BANK0 ] unsigned char 
  4297 ;;  sign            1   49[BANK0 ] unsigned char 
  4298 ;; Return value:  Size  Location     Type
  4299 ;;                  4   32[BANK0 ] unsigned char 
  4300 ;; Registers used:
  4301 ;;		wreg, status,2, status,0, btemp+1
  4302 ;; Tracked objects:
  4303 ;;		On entry : 0/0
  4304 ;;		On exit  : 0/0
  4305 ;;		Unchanged: 0/0
  4306 ;; Data sizes:     COMMON   BANK0   BANK1   BANK3   BANK2
  4307 ;;      Params:         0       8       0       0       0
  4308 ;;      Locals:         0      13       0       0       0
  4309 ;;      Temps:          0       5       0       0       0
  4310 ;;      Totals:         0      26       0       0       0
  4311 ;;Total ram usage:       26 bytes
  4312 ;; Hardware stack levels used:    1
  4313 ;; Hardware stack levels required when called:    1
  4314 ;; This function calls:
  4315 ;;		Nothing
  4316 ;; This function is called by:
  4317 ;;		_ADC
  4318 ;; This function uses a non-reentrant model
  4319 ;;
  4320                           
  4321                           
  4322                           ;psect for function ___fldiv
  4323  0E23                     ___fldiv:	
  4324  0E23                     l1834:	
  4325                           ;incstack = 0
  4326                           ; Regs used in ___fldiv: [wreg+status,2+status,0+btemp+1]
  4327                           
  4328  0E23  1283               	bcf	3,5	;RP0=0, select bank0
  4329  0E24  1303               	bcf	3,6	;RP1=0, select bank0
  4330  0E25  0847               	movf	___fldiv@b+3,w
  4331  0E26  3980               	andlw	128
  4332  0E27  00C8               	movwf	??___fldiv
  4333  0E28  0848               	movf	??___fldiv,w
  4334  0E29  00D1               	movwf	___fldiv@sign
  4335  0E2A                     l1836:	
  4336  0E2A  0847               	movf	___fldiv@b+3,w
  4337  0E2B  00C8               	movwf	??___fldiv
  4338  0E2C  0748               	addwf	??___fldiv,w
  4339  0E2D  00C9               	movwf	??___fldiv+1
  4340  0E2E  0849               	movf	??___fldiv+1,w
  4341  0E2F  00D8               	movwf	___fldiv@bexp
  4342  0E30                     l1838:	
  4343  0E30  1FC6               	btfss	___fldiv@b+2,7
  4344  0E31  2E33               	goto	u1931
  4345  0E32  2E34               	goto	u1930
  4346  0E33                     u1931:	
  4347  0E33  2E35               	goto	l1842
  4348  0E34                     u1930:	
  4349  0E34                     l1840:	
  4350  0E34  1458               	bsf	___fldiv@bexp,0
  4351  0E35                     l1842:	
  4352  0E35  0858               	movf	___fldiv@bexp,w
  4353  0E36  1903               	btfsc	3,2
  4354  0E37  2E39               	goto	u1941
  4355  0E38  2E3A               	goto	u1940
  4356  0E39                     u1941:	
  4357  0E39  2E4A               	goto	l1852
  4358  0E3A                     u1940:	
  4359  0E3A                     l1844:	
  4360  0E3A  0A58               	incf	___fldiv@bexp,w
  4361  0E3B  1D03               	btfss	3,2
  4362  0E3C  2E3E               	goto	u1951
  4363  0E3D  2E3F               	goto	u1950
  4364  0E3E                     u1951:	
  4365  0E3E  2E47               	goto	l1848
  4366  0E3F                     u1950:	
  4367  0E3F                     l1846:	
  4368  0E3F  3000               	movlw	0
  4369  0E40  00C7               	movwf	___fldiv@b+3
  4370  0E41  3000               	movlw	0
  4371  0E42  00C6               	movwf	___fldiv@b+2
  4372  0E43  3000               	movlw	0
  4373  0E44  00C5               	movwf	___fldiv@b+1
  4374  0E45  3000               	movlw	0
  4375  0E46  00C4               	movwf	___fldiv@b
  4376  0E47                     l1848:	
  4377  0E47  17C6               	bsf	___fldiv@b+2,7
  4378  0E48                     l1850:	
  4379  0E48  01C7               	clrf	___fldiv@b+3
  4380  0E49  2E52               	goto	l1854
  4381  0E4A                     l1852:	
  4382  0E4A  3000               	movlw	0
  4383  0E4B  00C7               	movwf	___fldiv@b+3
  4384  0E4C  3000               	movlw	0
  4385  0E4D  00C6               	movwf	___fldiv@b+2
  4386  0E4E  3000               	movlw	0
  4387  0E4F  00C5               	movwf	___fldiv@b+1
  4388  0E50  3000               	movlw	0
  4389  0E51  00C4               	movwf	___fldiv@b
  4390  0E52                     l1854:	
  4391  0E52  0843               	movf	___fldiv@a+3,w
  4392  0E53  3980               	andlw	128
  4393  0E54  00C8               	movwf	??___fldiv
  4394  0E55  0848               	movf	??___fldiv,w
  4395  0E56  06D1               	xorwf	___fldiv@sign,f
  4396  0E57                     l1856:	
  4397  0E57  0843               	movf	___fldiv@a+3,w
  4398  0E58  00C8               	movwf	??___fldiv
  4399  0E59  0748               	addwf	??___fldiv,w
  4400  0E5A  00C9               	movwf	??___fldiv+1
  4401  0E5B  0849               	movf	??___fldiv+1,w
  4402  0E5C  00D9               	movwf	___fldiv@aexp
  4403  0E5D                     l1858:	
  4404  0E5D  1FC2               	btfss	___fldiv@a+2,7
  4405  0E5E  2E60               	goto	u1961
  4406  0E5F  2E61               	goto	u1960
  4407  0E60                     u1961:	
  4408  0E60  2E62               	goto	l1862
  4409  0E61                     u1960:	
  4410  0E61                     l1860:	
  4411  0E61  1459               	bsf	___fldiv@aexp,0
  4412  0E62                     l1862:	
  4413  0E62  0859               	movf	___fldiv@aexp,w
  4414  0E63  1903               	btfsc	3,2
  4415  0E64  2E66               	goto	u1971
  4416  0E65  2E67               	goto	u1970
  4417  0E66                     u1971:	
  4418  0E66  2E77               	goto	l1872
  4419  0E67                     u1970:	
  4420  0E67                     l1864:	
  4421  0E67  0A59               	incf	___fldiv@aexp,w
  4422  0E68  1D03               	btfss	3,2
  4423  0E69  2E6B               	goto	u1981
  4424  0E6A  2E6C               	goto	u1980
  4425  0E6B                     u1981:	
  4426  0E6B  2E74               	goto	l1868
  4427  0E6C                     u1980:	
  4428  0E6C                     l1866:	
  4429  0E6C  3000               	movlw	0
  4430  0E6D  00C3               	movwf	___fldiv@a+3
  4431  0E6E  3000               	movlw	0
  4432  0E6F  00C2               	movwf	___fldiv@a+2
  4433  0E70  3000               	movlw	0
  4434  0E71  00C1               	movwf	___fldiv@a+1
  4435  0E72  3000               	movlw	0
  4436  0E73  00C0               	movwf	___fldiv@a
  4437  0E74                     l1868:	
  4438  0E74  17C2               	bsf	___fldiv@a+2,7
  4439  0E75                     l1870:	
  4440  0E75  01C3               	clrf	___fldiv@a+3
  4441  0E76  2E7F               	goto	l610
  4442  0E77                     l1872:	
  4443  0E77  3000               	movlw	0
  4444  0E78  00C3               	movwf	___fldiv@a+3
  4445  0E79  3000               	movlw	0
  4446  0E7A  00C2               	movwf	___fldiv@a+2
  4447  0E7B  3000               	movlw	0
  4448  0E7C  00C1               	movwf	___fldiv@a+1
  4449  0E7D  3000               	movlw	0
  4450  0E7E  00C0               	movwf	___fldiv@a
  4451  0E7F                     l610:	
  4452  0E7F  0843               	movf	___fldiv@a+3,w
  4453  0E80  0442               	iorwf	___fldiv@a+2,w
  4454  0E81  0441               	iorwf	___fldiv@a+1,w
  4455  0E82  0440               	iorwf	___fldiv@a,w
  4456  0E83  1D03               	skipz
  4457  0E84  2E86               	goto	u1991
  4458  0E85  2E87               	goto	u1990
  4459  0E86                     u1991:	
  4460  0E86  2EA0               	goto	l1882
  4461  0E87                     u1990:	
  4462  0E87                     l1874:	
  4463  0E87  3000               	movlw	0
  4464  0E88  00C7               	movwf	___fldiv@b+3
  4465  0E89  3000               	movlw	0
  4466  0E8A  00C6               	movwf	___fldiv@b+2
  4467  0E8B  3000               	movlw	0
  4468  0E8C  00C5               	movwf	___fldiv@b+1
  4469  0E8D  3000               	movlw	0
  4470  0E8E  00C4               	movwf	___fldiv@b
  4471  0E8F  3080               	movlw	128
  4472  0E90  04C6               	iorwf	___fldiv@b+2,f
  4473  0E91  307F               	movlw	127
  4474  0E92  04C7               	iorwf	___fldiv@b+3,f
  4475  0E93                     l1876:	
  4476  0E93  0851               	movf	___fldiv@sign,w
  4477  0E94  00C8               	movwf	??___fldiv
  4478  0E95  0848               	movf	??___fldiv,w
  4479  0E96  04C7               	iorwf	___fldiv@b+3,f
  4480  0E97                     l1878:	
  4481  0E97  0847               	movf	___fldiv@b+3,w
  4482  0E98  00C3               	movwf	?___fldiv+3
  4483  0E99  0846               	movf	___fldiv@b+2,w
  4484  0E9A  00C2               	movwf	?___fldiv+2
  4485  0E9B  0845               	movf	___fldiv@b+1,w
  4486  0E9C  00C1               	movwf	?___fldiv+1
  4487  0E9D  0844               	movf	___fldiv@b,w
  4488  0E9E  00C0               	movwf	?___fldiv
  4489  0E9F  2FFF               	goto	l612
  4490  0EA0                     l1882:	
  4491  0EA0  0858               	movf	___fldiv@bexp,w
  4492  0EA1  1D03               	btfss	3,2
  4493  0EA2  2EA4               	goto	u2001
  4494  0EA3  2EA5               	goto	u2000
  4495  0EA4                     u2001:	
  4496  0EA4  2EAE               	goto	l1888
  4497  0EA5                     u2000:	
  4498  0EA5                     l1884:	
  4499  0EA5  3000               	movlw	0
  4500  0EA6  00C3               	movwf	?___fldiv+3
  4501  0EA7  3000               	movlw	0
  4502  0EA8  00C2               	movwf	?___fldiv+2
  4503  0EA9  3000               	movlw	0
  4504  0EAA  00C1               	movwf	?___fldiv+1
  4505  0EAB  3000               	movlw	0
  4506  0EAC  00C0               	movwf	?___fldiv
  4507  0EAD  2FFF               	goto	l612
  4508  0EAE                     l1888:	
  4509  0EAE  0858               	movf	___fldiv@bexp,w
  4510  0EAF  00C8               	movwf	??___fldiv
  4511  0EB0  01C9               	clrf	??___fldiv+1
  4512  0EB1  0849               	movf	??___fldiv+1,w
  4513  0EB2  00CB               	movwf	??___fldiv+3
  4514  0EB3  0859               	movf	___fldiv@aexp,w
  4515  0EB4  0248               	subwf	??___fldiv,w
  4516  0EB5  00CA               	movwf	??___fldiv+2
  4517  0EB6  1C03               	skipc
  4518  0EB7  03CB               	decf	??___fldiv+3,f
  4519  0EB8  084A               	movf	??___fldiv+2,w
  4520  0EB9  3E7F               	addlw	127
  4521  0EBA  00D2               	movwf	___fldiv@new_exp
  4522  0EBB  084B               	movf	??___fldiv+3,w
  4523  0EBC  1803               	skipnc
  4524  0EBD  3E01               	addlw	1
  4525  0EBE  3E00               	addlw	0
  4526  0EBF  00D3               	movwf	___fldiv@new_exp+1
  4527  0EC0                     l1890:	
  4528  0EC0  0847               	movf	___fldiv@b+3,w
  4529  0EC1  00D0               	movwf	___fldiv@rem+3
  4530  0EC2  0846               	movf	___fldiv@b+2,w
  4531  0EC3  00CF               	movwf	___fldiv@rem+2
  4532  0EC4  0845               	movf	___fldiv@b+1,w
  4533  0EC5  00CE               	movwf	___fldiv@rem+1
  4534  0EC6  0844               	movf	___fldiv@b,w
  4535  0EC7  00CD               	movwf	___fldiv@rem
  4536  0EC8                     l1892:	
  4537  0EC8  3000               	movlw	0
  4538  0EC9  00C7               	movwf	___fldiv@b+3
  4539  0ECA  3000               	movlw	0
  4540  0ECB  00C6               	movwf	___fldiv@b+2
  4541  0ECC  3000               	movlw	0
  4542  0ECD  00C5               	movwf	___fldiv@b+1
  4543  0ECE  3000               	movlw	0
  4544  0ECF  00C4               	movwf	___fldiv@b
  4545  0ED0                     l1894:	
  4546  0ED0  3000               	movlw	0
  4547  0ED1  00D7               	movwf	___fldiv@grs+3
  4548  0ED2  3000               	movlw	0
  4549  0ED3  00D6               	movwf	___fldiv@grs+2
  4550  0ED4  3000               	movlw	0
  4551  0ED5  00D5               	movwf	___fldiv@grs+1
  4552  0ED6  3000               	movlw	0
  4553  0ED7  00D4               	movwf	___fldiv@grs
  4554  0ED8                     l1896:	
  4555  0ED8  01D9               	clrf	___fldiv@aexp
  4556  0ED9  2F24               	goto	l1916
  4557  0EDA                     l1898:	
  4558  0EDA  0859               	movf	___fldiv@aexp,w
  4559  0EDB  1903               	btfsc	3,2
  4560  0EDC  2EDE               	goto	u2011
  4561  0EDD  2EDF               	goto	u2010
  4562  0EDE                     u2011:	
  4563  0EDE  2EFF               	goto	l1908
  4564  0EDF                     u2010:	
  4565  0EDF                     l1900:	
  4566  0EDF  3001               	movlw	1
  4567  0EE0  00C8               	movwf	??___fldiv
  4568  0EE1                     u2025:	
  4569  0EE1  1003               	clrc
  4570  0EE2  0DCD               	rlf	___fldiv@rem,f
  4571  0EE3  0DCE               	rlf	___fldiv@rem+1,f
  4572  0EE4  0DCF               	rlf	___fldiv@rem+2,f
  4573  0EE5  0DD0               	rlf	___fldiv@rem+3,f
  4574  0EE6  0BC8               	decfsz	??___fldiv,f
  4575  0EE7  2EE1               	goto	u2025
  4576  0EE8  3001               	movlw	1
  4577  0EE9  00C8               	movwf	??___fldiv
  4578  0EEA                     u2035:	
  4579  0EEA  1003               	clrc
  4580  0EEB  0DC4               	rlf	___fldiv@b,f
  4581  0EEC  0DC5               	rlf	___fldiv@b+1,f
  4582  0EED  0DC6               	rlf	___fldiv@b+2,f
  4583  0EEE  0DC7               	rlf	___fldiv@b+3,f
  4584  0EEF  0BC8               	decfsz	??___fldiv,f
  4585  0EF0  2EEA               	goto	u2035
  4586  0EF1                     l1902:	
  4587  0EF1  1FD7               	btfss	___fldiv@grs+3,7
  4588  0EF2  2EF4               	goto	u2041
  4589  0EF3  2EF5               	goto	u2040
  4590  0EF4                     u2041:	
  4591  0EF4  2EF6               	goto	l1906
  4592  0EF5                     u2040:	
  4593  0EF5                     l1904:	
  4594  0EF5  1444               	bsf	___fldiv@b,0
  4595  0EF6                     l1906:	
  4596  0EF6  3001               	movlw	1
  4597  0EF7  00C8               	movwf	??___fldiv
  4598  0EF8                     u2055:	
  4599  0EF8  1003               	clrc
  4600  0EF9  0DD4               	rlf	___fldiv@grs,f
  4601  0EFA  0DD5               	rlf	___fldiv@grs+1,f
  4602  0EFB  0DD6               	rlf	___fldiv@grs+2,f
  4603  0EFC  0DD7               	rlf	___fldiv@grs+3,f
  4604  0EFD  0BC8               	decfsz	??___fldiv,f
  4605  0EFE  2EF8               	goto	u2055
  4606  0EFF                     l1908:	
  4607  0EFF  0843               	movf	___fldiv@a+3,w
  4608  0F00  0250               	subwf	___fldiv@rem+3,w
  4609  0F01  1D03               	skipz
  4610  0F02  2F0D               	goto	u2065
  4611  0F03  0842               	movf	___fldiv@a+2,w
  4612  0F04  024F               	subwf	___fldiv@rem+2,w
  4613  0F05  1D03               	skipz
  4614  0F06  2F0D               	goto	u2065
  4615  0F07  0841               	movf	___fldiv@a+1,w
  4616  0F08  024E               	subwf	___fldiv@rem+1,w
  4617  0F09  1D03               	skipz
  4618  0F0A  2F0D               	goto	u2065
  4619  0F0B  0840               	movf	___fldiv@a,w
  4620  0F0C  024D               	subwf	___fldiv@rem,w
  4621  0F0D                     u2065:	
  4622  0F0D  1C03               	skipc
  4623  0F0E  2F10               	goto	u2061
  4624  0F0F  2F11               	goto	u2060
  4625  0F10                     u2061:	
  4626  0F10  2F20               	goto	l1914
  4627  0F11                     u2060:	
  4628  0F11                     l1910:	
  4629  0F11  1757               	bsf	___fldiv@grs+3,6
  4630  0F12                     l1912:	
  4631  0F12  0840               	movf	___fldiv@a,w
  4632  0F13  02CD               	subwf	___fldiv@rem,f
  4633  0F14  0841               	movf	___fldiv@a+1,w
  4634  0F15  1C03               	skipc
  4635  0F16  0F41               	incfsz	___fldiv@a+1,w
  4636  0F17  02CE               	subwf	___fldiv@rem+1,f
  4637  0F18  0842               	movf	___fldiv@a+2,w
  4638  0F19  1C03               	skipc
  4639  0F1A  0F42               	incfsz	___fldiv@a+2,w
  4640  0F1B  02CF               	subwf	___fldiv@rem+2,f
  4641  0F1C  0843               	movf	___fldiv@a+3,w
  4642  0F1D  1C03               	skipc
  4643  0F1E  0F43               	incfsz	___fldiv@a+3,w
  4644  0F1F  02D0               	subwf	___fldiv@rem+3,f
  4645  0F20                     l1914:	
  4646  0F20  3001               	movlw	1
  4647  0F21  00C8               	movwf	??___fldiv
  4648  0F22  0848               	movf	??___fldiv,w
  4649  0F23  07D9               	addwf	___fldiv@aexp,f
  4650  0F24                     l1916:	
  4651  0F24  301A               	movlw	26
  4652  0F25  0259               	subwf	___fldiv@aexp,w
  4653  0F26  1C03               	skipc
  4654  0F27  2F29               	goto	u2071
  4655  0F28  2F2A               	goto	u2070
  4656  0F29                     u2071:	
  4657  0F29  2EDA               	goto	l1898
  4658  0F2A                     u2070:	
  4659  0F2A                     l1918:	
  4660  0F2A  0850               	movf	___fldiv@rem+3,w
  4661  0F2B  044F               	iorwf	___fldiv@rem+2,w
  4662  0F2C  044E               	iorwf	___fldiv@rem+1,w
  4663  0F2D  044D               	iorwf	___fldiv@rem,w
  4664  0F2E  1903               	skipnz
  4665  0F2F  2F31               	goto	u2081
  4666  0F30  2F32               	goto	u2080
  4667  0F31                     u2081:	
  4668  0F31  2F51               	goto	l1932
  4669  0F32                     u2080:	
  4670  0F32                     l1920:	
  4671  0F32  1454               	bsf	___fldiv@grs,0
  4672  0F33  2F51               	goto	l1932
  4673  0F34                     l1922:	
  4674  0F34  3001               	movlw	1
  4675  0F35  00C8               	movwf	??___fldiv
  4676  0F36                     u2095:	
  4677  0F36  1003               	clrc
  4678  0F37  0DC4               	rlf	___fldiv@b,f
  4679  0F38  0DC5               	rlf	___fldiv@b+1,f
  4680  0F39  0DC6               	rlf	___fldiv@b+2,f
  4681  0F3A  0DC7               	rlf	___fldiv@b+3,f
  4682  0F3B  0BC8               	decfsz	??___fldiv,f
  4683  0F3C  2F36               	goto	u2095
  4684  0F3D                     l1924:	
  4685  0F3D  1FD7               	btfss	___fldiv@grs+3,7
  4686  0F3E  2F40               	goto	u2101
  4687  0F3F  2F41               	goto	u2100
  4688  0F40                     u2101:	
  4689  0F40  2F42               	goto	l1928
  4690  0F41                     u2100:	
  4691  0F41                     l1926:	
  4692  0F41  1444               	bsf	___fldiv@b,0
  4693  0F42                     l1928:	
  4694  0F42  3001               	movlw	1
  4695  0F43  00C8               	movwf	??___fldiv
  4696  0F44                     u2115:	
  4697  0F44  1003               	clrc
  4698  0F45  0DD4               	rlf	___fldiv@grs,f
  4699  0F46  0DD5               	rlf	___fldiv@grs+1,f
  4700  0F47  0DD6               	rlf	___fldiv@grs+2,f
  4701  0F48  0DD7               	rlf	___fldiv@grs+3,f
  4702  0F49  0BC8               	decfsz	??___fldiv,f
  4703  0F4A  2F44               	goto	u2115
  4704  0F4B                     l1930:	
  4705  0F4B  30FF               	movlw	255
  4706  0F4C  07D2               	addwf	___fldiv@new_exp,f
  4707  0F4D  1803               	skipnc
  4708  0F4E  0AD3               	incf	___fldiv@new_exp+1,f
  4709  0F4F  30FF               	movlw	255
  4710  0F50  07D3               	addwf	___fldiv@new_exp+1,f
  4711  0F51                     l1932:	
  4712  0F51  1FC6               	btfss	___fldiv@b+2,7
  4713  0F52  2F54               	goto	u2121
  4714  0F53  2F55               	goto	u2120
  4715  0F54                     u2121:	
  4716  0F54  2F34               	goto	l1922
  4717  0F55                     u2120:	
  4718  0F55                     l1934:	
  4719  0F55  01D9               	clrf	___fldiv@aexp
  4720  0F56                     l1936:	
  4721  0F56  1FD7               	btfss	___fldiv@grs+3,7
  4722  0F57  2F59               	goto	u2131
  4723  0F58  2F5A               	goto	u2130
  4724  0F59                     u2131:	
  4725  0F59  2F76               	goto	l1944
  4726  0F5A                     u2130:	
  4727  0F5A                     l1938:	
  4728  0F5A  30FF               	movlw	255
  4729  0F5B  0554               	andwf	___fldiv@grs,w
  4730  0F5C  00C8               	movwf	??___fldiv
  4731  0F5D  30FF               	movlw	255
  4732  0F5E  0555               	andwf	___fldiv@grs+1,w
  4733  0F5F  00C9               	movwf	??___fldiv+1
  4734  0F60  30FF               	movlw	255
  4735  0F61  0556               	andwf	___fldiv@grs+2,w
  4736  0F62  00CA               	movwf	??___fldiv+2
  4737  0F63  307F               	movlw	127
  4738  0F64  0557               	andwf	___fldiv@grs+3,w
  4739  0F65  00CB               	movwf	??___fldiv+3
  4740  0F66  084B               	movf	??___fldiv+3,w
  4741  0F67  044A               	iorwf	??___fldiv+2,w
  4742  0F68  0449               	iorwf	??___fldiv+1,w
  4743  0F69  0448               	iorwf	??___fldiv,w
  4744  0F6A  1903               	skipnz
  4745  0F6B  2F6D               	goto	u2141
  4746  0F6C  2F6E               	goto	u2140
  4747  0F6D                     u2141:	
  4748  0F6D  2F71               	goto	l626
  4749  0F6E                     u2140:	
  4750  0F6E                     l1940:	
  4751  0F6E  01D9               	clrf	___fldiv@aexp
  4752  0F6F  0AD9               	incf	___fldiv@aexp,f
  4753  0F70  2F76               	goto	l1944
  4754  0F71                     l626:	
  4755  0F71  1C44               	btfss	___fldiv@b,0
  4756  0F72  2F74               	goto	u2151
  4757  0F73  2F75               	goto	u2150
  4758  0F74                     u2151:	
  4759  0F74  2F76               	goto	l1944
  4760  0F75                     u2150:	
  4761  0F75  2F6E               	goto	l1940
  4762  0F76                     l1944:	
  4763  0F76  0859               	movf	___fldiv@aexp,w
  4764  0F77  1903               	btfsc	3,2
  4765  0F78  2F7A               	goto	u2161
  4766  0F79  2F7B               	goto	u2160
  4767  0F7A                     u2161:	
  4768  0F7A  2FAC               	goto	l1954
  4769  0F7B                     u2160:	
  4770  0F7B                     l1946:	
  4771  0F7B  3001               	movlw	1
  4772  0F7C  07C4               	addwf	___fldiv@b,f
  4773  0F7D  3000               	movlw	0
  4774  0F7E  1803               	skipnc
  4775  0F7F  3001               	movlw	1
  4776  0F80  07C5               	addwf	___fldiv@b+1,f
  4777  0F81  3000               	movlw	0
  4778  0F82  1803               	skipnc
  4779  0F83  3001               	movlw	1
  4780  0F84  07C6               	addwf	___fldiv@b+2,f
  4781  0F85  3000               	movlw	0
  4782  0F86  1803               	skipnc
  4783  0F87  3001               	movlw	1
  4784  0F88  07C7               	addwf	___fldiv@b+3,f
  4785  0F89                     l1948:	
  4786  0F89  1C47               	btfss	___fldiv@b+3,0
  4787  0F8A  2F8C               	goto	u2171
  4788  0F8B  2F8D               	goto	u2170
  4789  0F8C                     u2171:	
  4790  0F8C  2FAC               	goto	l1954
  4791  0F8D                     u2170:	
  4792  0F8D                     l1950:	
  4793  0F8D  0844               	movf	___fldiv@b,w
  4794  0F8E  00C8               	movwf	??___fldiv
  4795  0F8F  0845               	movf	___fldiv@b+1,w
  4796  0F90  00C9               	movwf	??___fldiv+1
  4797  0F91  0846               	movf	___fldiv@b+2,w
  4798  0F92  00CA               	movwf	??___fldiv+2
  4799  0F93  0847               	movf	___fldiv@b+3,w
  4800  0F94  00CB               	movwf	??___fldiv+3
  4801  0F95  3001               	movlw	1
  4802  0F96  00CC               	movwf	??___fldiv+4
  4803  0F97                     u2185:	
  4804  0F97  0D4B               	rlf	??___fldiv+3,w
  4805  0F98  0CCB               	rrf	??___fldiv+3,f
  4806  0F99  0CCA               	rrf	??___fldiv+2,f
  4807  0F9A  0CC9               	rrf	??___fldiv+1,f
  4808  0F9B  0CC8               	rrf	??___fldiv,f
  4809  0F9C                     u2180:	
  4810  0F9C  0BCC               	decfsz	??___fldiv+4,f
  4811  0F9D  2F97               	goto	u2185
  4812  0F9E  084B               	movf	??___fldiv+3,w
  4813  0F9F  00C7               	movwf	___fldiv@b+3
  4814  0FA0  084A               	movf	??___fldiv+2,w
  4815  0FA1  00C6               	movwf	___fldiv@b+2
  4816  0FA2  0849               	movf	??___fldiv+1,w
  4817  0FA3  00C5               	movwf	___fldiv@b+1
  4818  0FA4  0848               	movf	??___fldiv,w
  4819  0FA5  00C4               	movwf	___fldiv@b
  4820  0FA6                     l1952:	
  4821  0FA6  3001               	movlw	1
  4822  0FA7  07D2               	addwf	___fldiv@new_exp,f
  4823  0FA8  1803               	skipnc
  4824  0FA9  0AD3               	incf	___fldiv@new_exp+1,f
  4825  0FAA  3000               	movlw	0
  4826  0FAB  07D3               	addwf	___fldiv@new_exp+1,f
  4827  0FAC                     l1954:	
  4828  0FAC  0853               	movf	___fldiv@new_exp+1,w
  4829  0FAD  3A80               	xorlw	128
  4830  0FAE  00FF               	movwf	btemp+1
  4831  0FAF  3080               	movlw	128
  4832  0FB0  027F               	subwf	btemp+1,w
  4833  0FB1  1D03               	skipz
  4834  0FB2  2FB5               	goto	u2195
  4835  0FB3  30FF               	movlw	255
  4836  0FB4  0252               	subwf	___fldiv@new_exp,w
  4837  0FB5                     u2195:	
  4838  0FB5  1C03               	skipc
  4839  0FB6  2FB8               	goto	u2191
  4840  0FB7  2FB9               	goto	u2190
  4841  0FB8                     u2191:	
  4842  0FB8  2FC7               	goto	l1958
  4843  0FB9                     u2190:	
  4844  0FB9                     l1956:	
  4845  0FB9  30FF               	movlw	255
  4846  0FBA  1283               	bcf	3,5	;RP0=0, select bank0
  4847  0FBB  1303               	bcf	3,6	;RP1=0, select bank0
  4848  0FBC  00D2               	movwf	___fldiv@new_exp
  4849  0FBD  3000               	movlw	0
  4850  0FBE  00D3               	movwf	___fldiv@new_exp+1
  4851  0FBF  3000               	movlw	0
  4852  0FC0  00C7               	movwf	___fldiv@b+3
  4853  0FC1  3000               	movlw	0
  4854  0FC2  00C6               	movwf	___fldiv@b+2
  4855  0FC3  3000               	movlw	0
  4856  0FC4  00C5               	movwf	___fldiv@b+1
  4857  0FC5  3000               	movlw	0
  4858  0FC6  00C4               	movwf	___fldiv@b
  4859  0FC7                     l1958:	
  4860  0FC7  1283               	bcf	3,5	;RP0=0, select bank0
  4861  0FC8  1303               	bcf	3,6	;RP1=0, select bank0
  4862  0FC9  0853               	movf	___fldiv@new_exp+1,w
  4863  0FCA  3A80               	xorlw	128
  4864  0FCB  00FF               	movwf	btemp+1
  4865  0FCC  3080               	movlw	128
  4866  0FCD  027F               	subwf	btemp+1,w
  4867  0FCE  1D03               	skipz
  4868  0FCF  2FD2               	goto	u2205
  4869  0FD0  3001               	movlw	1
  4870  0FD1  0252               	subwf	___fldiv@new_exp,w
  4871  0FD2                     u2205:	
  4872  0FD2  1803               	skipnc
  4873  0FD3  2FD5               	goto	u2201
  4874  0FD4  2FD6               	goto	u2200
  4875  0FD5                     u2201:	
  4876  0FD5  2FE3               	goto	l632
  4877  0FD6                     u2200:	
  4878  0FD6                     l1960:	
  4879  0FD6  1283               	bcf	3,5	;RP0=0, select bank0
  4880  0FD7  1303               	bcf	3,6	;RP1=0, select bank0
  4881  0FD8  01D2               	clrf	___fldiv@new_exp
  4882  0FD9  01D3               	clrf	___fldiv@new_exp+1
  4883  0FDA                     l1962:	
  4884  0FDA  3000               	movlw	0
  4885  0FDB  00C7               	movwf	___fldiv@b+3
  4886  0FDC  3000               	movlw	0
  4887  0FDD  00C6               	movwf	___fldiv@b+2
  4888  0FDE  3000               	movlw	0
  4889  0FDF  00C5               	movwf	___fldiv@b+1
  4890  0FE0  3000               	movlw	0
  4891  0FE1  00C4               	movwf	___fldiv@b
  4892  0FE2                     l1964:	
  4893  0FE2  01D1               	clrf	___fldiv@sign
  4894  0FE3                     l632:	
  4895  0FE3  1283               	bcf	3,5	;RP0=0, select bank0
  4896  0FE4  1303               	bcf	3,6	;RP1=0, select bank0
  4897  0FE5  0852               	movf	___fldiv@new_exp,w
  4898  0FE6  00C8               	movwf	??___fldiv
  4899  0FE7  0848               	movf	??___fldiv,w
  4900  0FE8  00D8               	movwf	___fldiv@bexp
  4901  0FE9                     l1966:	
  4902  0FE9  1C58               	btfss	___fldiv@bexp,0
  4903  0FEA  2FEC               	goto	u2211
  4904  0FEB  2FED               	goto	u2210
  4905  0FEC                     u2211:	
  4906  0FEC  2FEF               	goto	l1970
  4907  0FED                     u2210:	
  4908  0FED                     l1968:	
  4909  0FED  17C6               	bsf	___fldiv@b+2,7
  4910  0FEE  2FF3               	goto	l634
  4911  0FEF                     l1970:	
  4912  0FEF  307F               	movlw	127
  4913  0FF0  00C8               	movwf	??___fldiv
  4914  0FF1  0848               	movf	??___fldiv,w
  4915  0FF2  05C6               	andwf	___fldiv@b+2,f
  4916  0FF3                     l634:	
  4917  0FF3  0858               	movf	___fldiv@bexp,w
  4918  0FF4  00C8               	movwf	??___fldiv
  4919  0FF5  1003               	clrc
  4920  0FF6  0C48               	rrf	??___fldiv,w
  4921  0FF7  00C9               	movwf	??___fldiv+1
  4922  0FF8  0849               	movf	??___fldiv+1,w
  4923  0FF9  00C7               	movwf	___fldiv@b+3
  4924  0FFA  0851               	movf	___fldiv@sign,w
  4925  0FFB  00C8               	movwf	??___fldiv
  4926  0FFC  0848               	movf	??___fldiv,w
  4927  0FFD  04C7               	iorwf	___fldiv@b+3,f
  4928  0FFE  2E97               	goto	l1878
  4929  0FFF                     l612:	
  4930  0FFF  0008               	return
  4931  1000                     __end_of___fldiv:	
  4932                           
  4933                           	psect	text15
  4934  0CED                     __ptext15:	
  4935 ;; *************** function ___awmod *****************
  4936 ;; Defined at:
  4937 ;;		line 5 in file "C:\Program Files (x86)\Microchip\xc8\v2.10\pic\sources\c90\common\awmod.c"
  4938 ;; Parameters:    Size  Location     Type
  4939 ;;  divisor         2    4[BANK0 ] int 
  4940 ;;  dividend        2    6[BANK0 ] int 
  4941 ;; Auto vars:     Size  Location     Type
  4942 ;;  sign            1    9[COMMON] unsigned char 
  4943 ;;  counter         1    8[COMMON] unsigned char 
  4944 ;; Return value:  Size  Location     Type
  4945 ;;                  2    4[BANK0 ] int 
  4946 ;; Registers used:
  4947 ;;		wreg, status,2, status,0
  4948 ;; Tracked objects:
  4949 ;;		On entry : 0/0
  4950 ;;		On exit  : 0/0
  4951 ;;		Unchanged: 0/0
  4952 ;; Data sizes:     COMMON   BANK0   BANK1   BANK3   BANK2
  4953 ;;      Params:         0       4       0       0       0
  4954 ;;      Locals:         2       0       0       0       0
  4955 ;;      Temps:          1       0       0       0       0
  4956 ;;      Totals:         3       4       0       0       0
  4957 ;;Total ram usage:        7 bytes
  4958 ;; Hardware stack levels used:    1
  4959 ;; Hardware stack levels required when called:    1
  4960 ;; This function calls:
  4961 ;;		Nothing
  4962 ;; This function is called by:
  4963 ;;		_ADC
  4964 ;; This function uses a non-reentrant model
  4965 ;;
  4966                           
  4967                           
  4968                           ;psect for function ___awmod
  4969  0CED                     ___awmod:	
  4970  0CED                     l2364:	
  4971                           ;incstack = 0
  4972                           ; Regs used in ___awmod: [wreg+status,2+status,0]
  4973                           
  4974  0CED  01F9               	clrf	___awmod@sign
  4975  0CEE                     l2366:	
  4976  0CEE  1283               	bcf	3,5	;RP0=0, select bank0
  4977  0CEF  1303               	bcf	3,6	;RP1=0, select bank0
  4978  0CF0  1FA7               	btfss	___awmod@dividend+1,7
  4979  0CF1  2CF3               	goto	u2921
  4980  0CF2  2CF4               	goto	u2920
  4981  0CF3                     u2921:	
  4982  0CF3  2CFB               	goto	l2372
  4983  0CF4                     u2920:	
  4984  0CF4                     l2368:	
  4985  0CF4  09A6               	comf	___awmod@dividend,f
  4986  0CF5  09A7               	comf	___awmod@dividend+1,f
  4987  0CF6  0AA6               	incf	___awmod@dividend,f
  4988  0CF7  1903               	skipnz
  4989  0CF8  0AA7               	incf	___awmod@dividend+1,f
  4990  0CF9                     l2370:	
  4991  0CF9  01F9               	clrf	___awmod@sign
  4992  0CFA  0AF9               	incf	___awmod@sign,f
  4993  0CFB                     l2372:	
  4994  0CFB  1FA5               	btfss	___awmod@divisor+1,7
  4995  0CFC  2CFE               	goto	u2931
  4996  0CFD  2CFF               	goto	u2930
  4997  0CFE                     u2931:	
  4998  0CFE  2D04               	goto	l2376
  4999  0CFF                     u2930:	
  5000  0CFF                     l2374:	
  5001  0CFF  09A4               	comf	___awmod@divisor,f
  5002  0D00  09A5               	comf	___awmod@divisor+1,f
  5003  0D01  0AA4               	incf	___awmod@divisor,f
  5004  0D02  1903               	skipnz
  5005  0D03  0AA5               	incf	___awmod@divisor+1,f
  5006  0D04                     l2376:	
  5007  0D04  0824               	movf	___awmod@divisor,w
  5008  0D05  0425               	iorwf	___awmod@divisor+1,w
  5009  0D06  1903               	btfsc	3,2
  5010  0D07  2D09               	goto	u2941
  5011  0D08  2D0A               	goto	u2940
  5012  0D09                     u2941:	
  5013  0D09  2D39               	goto	l2394
  5014  0D0A                     u2940:	
  5015  0D0A                     l2378:	
  5016  0D0A  01F8               	clrf	___awmod@counter
  5017  0D0B  0AF8               	incf	___awmod@counter,f
  5018  0D0C  2D18               	goto	l2384
  5019  0D0D                     l2380:	
  5020  0D0D  3001               	movlw	1
  5021  0D0E                     u2955:	
  5022  0D0E  1003               	clrc
  5023  0D0F  0DA4               	rlf	___awmod@divisor,f
  5024  0D10  0DA5               	rlf	___awmod@divisor+1,f
  5025  0D11  3EFF               	addlw	-1
  5026  0D12  1D03               	skipz
  5027  0D13  2D0E               	goto	u2955
  5028  0D14                     l2382:	
  5029  0D14  3001               	movlw	1
  5030  0D15  00F7               	movwf	??___awmod
  5031  0D16  0877               	movf	??___awmod,w
  5032  0D17  07F8               	addwf	___awmod@counter,f
  5033  0D18                     l2384:	
  5034  0D18  1FA5               	btfss	___awmod@divisor+1,7
  5035  0D19  2D1B               	goto	u2961
  5036  0D1A  2D1C               	goto	u2960
  5037  0D1B                     u2961:	
  5038  0D1B  2D0D               	goto	l2380
  5039  0D1C                     u2960:	
  5040  0D1C                     l2386:	
  5041  0D1C  0825               	movf	___awmod@divisor+1,w
  5042  0D1D  0227               	subwf	___awmod@dividend+1,w
  5043  0D1E  1D03               	skipz
  5044  0D1F  2D22               	goto	u2975
  5045  0D20  0824               	movf	___awmod@divisor,w
  5046  0D21  0226               	subwf	___awmod@dividend,w
  5047  0D22                     u2975:	
  5048  0D22  1C03               	skipc
  5049  0D23  2D25               	goto	u2971
  5050  0D24  2D26               	goto	u2970
  5051  0D25                     u2971:	
  5052  0D25  2D2C               	goto	l2390
  5053  0D26                     u2970:	
  5054  0D26                     l2388:	
  5055  0D26  0824               	movf	___awmod@divisor,w
  5056  0D27  02A6               	subwf	___awmod@dividend,f
  5057  0D28  0825               	movf	___awmod@divisor+1,w
  5058  0D29  1C03               	skipc
  5059  0D2A  03A7               	decf	___awmod@dividend+1,f
  5060  0D2B  02A7               	subwf	___awmod@dividend+1,f
  5061  0D2C                     l2390:	
  5062  0D2C  3001               	movlw	1
  5063  0D2D                     u2985:	
  5064  0D2D  1003               	clrc
  5065  0D2E  0CA5               	rrf	___awmod@divisor+1,f
  5066  0D2F  0CA4               	rrf	___awmod@divisor,f
  5067  0D30  3EFF               	addlw	-1
  5068  0D31  1D03               	skipz
  5069  0D32  2D2D               	goto	u2985
  5070  0D33                     l2392:	
  5071  0D33  3001               	movlw	1
  5072  0D34  02F8               	subwf	___awmod@counter,f
  5073  0D35  1D03               	btfss	3,2
  5074  0D36  2D38               	goto	u2991
  5075  0D37  2D39               	goto	u2990
  5076  0D38                     u2991:	
  5077  0D38  2D1C               	goto	l2386
  5078  0D39                     u2990:	
  5079  0D39                     l2394:	
  5080  0D39  0879               	movf	___awmod@sign,w
  5081  0D3A  1903               	btfsc	3,2
  5082  0D3B  2D3D               	goto	u3001
  5083  0D3C  2D3E               	goto	u3000
  5084  0D3D                     u3001:	
  5085  0D3D  2D43               	goto	l2398
  5086  0D3E                     u3000:	
  5087  0D3E                     l2396:	
  5088  0D3E  09A6               	comf	___awmod@dividend,f
  5089  0D3F  09A7               	comf	___awmod@dividend+1,f
  5090  0D40  0AA6               	incf	___awmod@dividend,f
  5091  0D41  1903               	skipnz
  5092  0D42  0AA7               	incf	___awmod@dividend+1,f
  5093  0D43                     l2398:	
  5094  0D43  0827               	movf	___awmod@dividend+1,w
  5095  0D44  00A5               	movwf	?___awmod+1
  5096  0D45  0826               	movf	___awmod@dividend,w
  5097  0D46  00A4               	movwf	?___awmod
  5098  0D47                     l427:	
  5099  0D47  0008               	return
  5100  0D48                     __end_of___awmod:	
  5101                           
  5102                           	psect	text16
  5103  0D48                     __ptext16:	
  5104 ;; *************** function ___awdiv *****************
  5105 ;; Defined at:
  5106 ;;		line 5 in file "C:\Program Files (x86)\Microchip\xc8\v2.10\pic\sources\c90\common\awdiv.c"
  5107 ;; Parameters:    Size  Location     Type
  5108 ;;  divisor         2    2[COMMON] int 
  5109 ;;  dividend        2    4[COMMON] int 
  5110 ;; Auto vars:     Size  Location     Type
  5111 ;;  quotient        2    2[BANK0 ] int 
  5112 ;;  sign            1    1[BANK0 ] unsigned char 
  5113 ;;  counter         1    0[BANK0 ] unsigned char 
  5114 ;; Return value:  Size  Location     Type
  5115 ;;                  2    2[COMMON] int 
  5116 ;; Registers used:
  5117 ;;		wreg, status,2, status,0
  5118 ;; Tracked objects:
  5119 ;;		On entry : 0/0
  5120 ;;		On exit  : 0/0
  5121 ;;		Unchanged: 0/0
  5122 ;; Data sizes:     COMMON   BANK0   BANK1   BANK3   BANK2
  5123 ;;      Params:         4       0       0       0       0
  5124 ;;      Locals:         0       4       0       0       0
  5125 ;;      Temps:          1       0       0       0       0
  5126 ;;      Totals:         5       4       0       0       0
  5127 ;;Total ram usage:        9 bytes
  5128 ;; Hardware stack levels used:    1
  5129 ;; Hardware stack levels required when called:    1
  5130 ;; This function calls:
  5131 ;;		Nothing
  5132 ;; This function is called by:
  5133 ;;		_ADC
  5134 ;; This function uses a non-reentrant model
  5135 ;;
  5136                           
  5137                           
  5138                           ;psect for function ___awdiv
  5139  0D48                     ___awdiv:	
  5140  0D48                     l2320:	
  5141                           ;incstack = 0
  5142                           ; Regs used in ___awdiv: [wreg+status,2+status,0]
  5143                           
  5144  0D48  1283               	bcf	3,5	;RP0=0, select bank0
  5145  0D49  1303               	bcf	3,6	;RP1=0, select bank0
  5146  0D4A  01A1               	clrf	___awdiv@sign
  5147  0D4B                     l2322:	
  5148  0D4B  1FF3               	btfss	___awdiv@divisor+1,7
  5149  0D4C  2D4E               	goto	u2821
  5150  0D4D  2D4F               	goto	u2820
  5151  0D4E                     u2821:	
  5152  0D4E  2D56               	goto	l2328
  5153  0D4F                     u2820:	
  5154  0D4F                     l2324:	
  5155  0D4F  09F2               	comf	___awdiv@divisor,f
  5156  0D50  09F3               	comf	___awdiv@divisor+1,f
  5157  0D51  0AF2               	incf	___awdiv@divisor,f
  5158  0D52  1903               	skipnz
  5159  0D53  0AF3               	incf	___awdiv@divisor+1,f
  5160  0D54                     l2326:	
  5161  0D54  01A1               	clrf	___awdiv@sign
  5162  0D55  0AA1               	incf	___awdiv@sign,f
  5163  0D56                     l2328:	
  5164  0D56  1FF5               	btfss	___awdiv@dividend+1,7
  5165  0D57  2D59               	goto	u2831
  5166  0D58  2D5A               	goto	u2830
  5167  0D59                     u2831:	
  5168  0D59  2D63               	goto	l2334
  5169  0D5A                     u2830:	
  5170  0D5A                     l2330:	
  5171  0D5A  09F4               	comf	___awdiv@dividend,f
  5172  0D5B  09F5               	comf	___awdiv@dividend+1,f
  5173  0D5C  0AF4               	incf	___awdiv@dividend,f
  5174  0D5D  1903               	skipnz
  5175  0D5E  0AF5               	incf	___awdiv@dividend+1,f
  5176  0D5F                     l2332:	
  5177  0D5F  3001               	movlw	1
  5178  0D60  00F6               	movwf	??___awdiv
  5179  0D61  0876               	movf	??___awdiv,w
  5180  0D62  06A1               	xorwf	___awdiv@sign,f
  5181  0D63                     l2334:	
  5182  0D63  01A2               	clrf	___awdiv@quotient
  5183  0D64  01A3               	clrf	___awdiv@quotient+1
  5184  0D65                     l2336:	
  5185  0D65  0872               	movf	___awdiv@divisor,w
  5186  0D66  0473               	iorwf	___awdiv@divisor+1,w
  5187  0D67  1903               	btfsc	3,2
  5188  0D68  2D6A               	goto	u2841
  5189  0D69  2D6B               	goto	u2840
  5190  0D6A                     u2841:	
  5191  0D6A  2DA2               	goto	l2356
  5192  0D6B                     u2840:	
  5193  0D6B                     l2338:	
  5194  0D6B  01A0               	clrf	___awdiv@counter
  5195  0D6C  0AA0               	incf	___awdiv@counter,f
  5196  0D6D  2D79               	goto	l2344
  5197  0D6E                     l2340:	
  5198  0D6E  3001               	movlw	1
  5199  0D6F                     u2855:	
  5200  0D6F  1003               	clrc
  5201  0D70  0DF2               	rlf	___awdiv@divisor,f
  5202  0D71  0DF3               	rlf	___awdiv@divisor+1,f
  5203  0D72  3EFF               	addlw	-1
  5204  0D73  1D03               	skipz
  5205  0D74  2D6F               	goto	u2855
  5206  0D75                     l2342:	
  5207  0D75  3001               	movlw	1
  5208  0D76  00F6               	movwf	??___awdiv
  5209  0D77  0876               	movf	??___awdiv,w
  5210  0D78  07A0               	addwf	___awdiv@counter,f
  5211  0D79                     l2344:	
  5212  0D79  1FF3               	btfss	___awdiv@divisor+1,7
  5213  0D7A  2D7C               	goto	u2861
  5214  0D7B  2D7D               	goto	u2860
  5215  0D7C                     u2861:	
  5216  0D7C  2D6E               	goto	l2340
  5217  0D7D                     u2860:	
  5218  0D7D                     l2346:	
  5219  0D7D  3001               	movlw	1
  5220  0D7E                     u2875:	
  5221  0D7E  1003               	clrc
  5222  0D7F  0DA2               	rlf	___awdiv@quotient,f
  5223  0D80  0DA3               	rlf	___awdiv@quotient+1,f
  5224  0D81  3EFF               	addlw	-1
  5225  0D82  1D03               	skipz
  5226  0D83  2D7E               	goto	u2875
  5227  0D84  0873               	movf	___awdiv@divisor+1,w
  5228  0D85  0275               	subwf	___awdiv@dividend+1,w
  5229  0D86  1D03               	skipz
  5230  0D87  2D8A               	goto	u2885
  5231  0D88  0872               	movf	___awdiv@divisor,w
  5232  0D89  0274               	subwf	___awdiv@dividend,w
  5233  0D8A                     u2885:	
  5234  0D8A  1C03               	skipc
  5235  0D8B  2D8D               	goto	u2881
  5236  0D8C  2D8E               	goto	u2880
  5237  0D8D                     u2881:	
  5238  0D8D  2D95               	goto	l2352
  5239  0D8E                     u2880:	
  5240  0D8E                     l2348:	
  5241  0D8E  0872               	movf	___awdiv@divisor,w
  5242  0D8F  02F4               	subwf	___awdiv@dividend,f
  5243  0D90  0873               	movf	___awdiv@divisor+1,w
  5244  0D91  1C03               	skipc
  5245  0D92  03F5               	decf	___awdiv@dividend+1,f
  5246  0D93  02F5               	subwf	___awdiv@dividend+1,f
  5247  0D94                     l2350:	
  5248  0D94  1422               	bsf	___awdiv@quotient,0
  5249  0D95                     l2352:	
  5250  0D95  3001               	movlw	1
  5251  0D96                     u2895:	
  5252  0D96  1003               	clrc
  5253  0D97  0CF3               	rrf	___awdiv@divisor+1,f
  5254  0D98  0CF2               	rrf	___awdiv@divisor,f
  5255  0D99  3EFF               	addlw	-1
  5256  0D9A  1D03               	skipz
  5257  0D9B  2D96               	goto	u2895
  5258  0D9C                     l2354:	
  5259  0D9C  3001               	movlw	1
  5260  0D9D  02A0               	subwf	___awdiv@counter,f
  5261  0D9E  1D03               	btfss	3,2
  5262  0D9F  2DA1               	goto	u2901
  5263  0DA0  2DA2               	goto	u2900
  5264  0DA1                     u2901:	
  5265  0DA1  2D7D               	goto	l2346
  5266  0DA2                     u2900:	
  5267  0DA2                     l2356:	
  5268  0DA2  0821               	movf	___awdiv@sign,w
  5269  0DA3  1903               	btfsc	3,2
  5270  0DA4  2DA6               	goto	u2911
  5271  0DA5  2DA7               	goto	u2910
  5272  0DA6                     u2911:	
  5273  0DA6  2DAC               	goto	l2360
  5274  0DA7                     u2910:	
  5275  0DA7                     l2358:	
  5276  0DA7  09A2               	comf	___awdiv@quotient,f
  5277  0DA8  09A3               	comf	___awdiv@quotient+1,f
  5278  0DA9  0AA2               	incf	___awdiv@quotient,f
  5279  0DAA  1903               	skipnz
  5280  0DAB  0AA3               	incf	___awdiv@quotient+1,f
  5281  0DAC                     l2360:	
  5282  0DAC  0823               	movf	___awdiv@quotient+1,w
  5283  0DAD  00F3               	movwf	?___awdiv+1
  5284  0DAE  0822               	movf	___awdiv@quotient,w
  5285  0DAF  00F2               	movwf	?___awdiv
  5286  0DB0                     l414:	
  5287  0DB0  0008               	return
  5288  0DB1                     __end_of___awdiv:	
  5289                           
  5290                           	psect	text17
  5291  0BE2                     __ptext17:	
  5292 ;; *************** function _LCD_msg *****************
  5293 ;; Defined at:
  5294 ;;		line 54 in file "LCD.c"
  5295 ;; Parameters:    Size  Location     Type
  5296 ;;  c               2    5[COMMON] PTR unsigned char 
  5297 ;;		 -> STR_5(3), STR_4(3), ADCAC_CHARC(5), ADCC_CHARC(5), 
  5298 ;;		 -> STR_1(17), ARDUINO(5), 
  5299 ;; Auto vars:     Size  Location     Type
  5300 ;;		None
  5301 ;; Return value:  Size  Location     Type
  5302 ;;                  1    wreg      void 
  5303 ;; Registers used:
  5304 ;;		wreg, fsr0l, fsr0h, status,2, status,0, btemp+1, pclath, cstack
  5305 ;; Tracked objects:
  5306 ;;		On entry : 0/0
  5307 ;;		On exit  : 0/0
  5308 ;;		Unchanged: 0/0
  5309 ;; Data sizes:     COMMON   BANK0   BANK1   BANK3   BANK2
  5310 ;;      Params:         2       0       0       0       0
  5311 ;;      Locals:         0       0       0       0       0
  5312 ;;      Temps:          0       0       0       0       0
  5313 ;;      Totals:         2       0       0       0       0
  5314 ;;Total ram usage:        2 bytes
  5315 ;; Hardware stack levels used:    1
  5316 ;; Hardware stack levels required when called:    3
  5317 ;; This function calls:
  5318 ;;		_LCD_dwr
  5319 ;; This function is called by:
  5320 ;;		_ADC
  5321 ;; This function uses a non-reentrant model
  5322 ;;
  5323                           
  5324                           
  5325                           ;psect for function _LCD_msg
  5326  0BE2                     _LCD_msg:	
  5327  0BE2                     l1678:	
  5328                           ;incstack = 0
  5329                           ; Regs used in _LCD_msg: [wreg-fsr0h+status,2+status,0+btemp+1+pclath+cstack]
  5330                           
  5331                           
  5332                           ;LCD.c: 55:     while(*c != 0)
  5333  0BE2  2BF7               	goto	l1684
  5334  0BE3                     l1680:	
  5335                           
  5336                           ;LCD.c: 56:         LCD_dwr(*c++);
  5337  0BE3  0876               	movf	LCD_msg@c+1,w
  5338  0BE4  00FF               	movwf	btemp+1
  5339  0BE5  0875               	movf	LCD_msg@c,w
  5340  0BE6  0084               	movwf	4
  5341  0BE7  120A  158A  2000  120A  158A  	fcall	stringtab
  5342  0BEC  120A  158A  2347  120A  158A  	fcall	_LCD_dwr
  5343  0BF1                     l1682:	
  5344  0BF1  3001               	movlw	1
  5345  0BF2  07F5               	addwf	LCD_msg@c,f
  5346  0BF3  1803               	skipnc
  5347  0BF4  0AF6               	incf	LCD_msg@c+1,f
  5348  0BF5  3000               	movlw	0
  5349  0BF6  07F6               	addwf	LCD_msg@c+1,f
  5350  0BF7                     l1684:	
  5351                           
  5352                           ;LCD.c: 55:     while(*c != 0)
  5353  0BF7  0876               	movf	LCD_msg@c+1,w
  5354  0BF8  1283               	bcf	3,5	;RP0=0, select bank0
  5355  0BF9  1303               	bcf	3,6	;RP1=0, select bank0
  5356  0BFA  00FF               	movwf	btemp+1
  5357  0BFB  0875               	movf	LCD_msg@c,w
  5358  0BFC  0084               	movwf	4
  5359  0BFD  120A  158A  2000  120A  158A  	fcall	stringtab
  5360  0C02  3A00               	xorlw	0
  5361  0C03  1D03               	skipz
  5362  0C04  2C06               	goto	u1591
  5363  0C05  2C07               	goto	u1590
  5364  0C06                     u1591:	
  5365  0C06  2BE3               	goto	l1680
  5366  0C07                     u1590:	
  5367  0C07                     l90:	
  5368  0C07  0008               	return
  5369  0C08                     __end_of_LCD_msg:	
  5370                           
  5371                           	psect	text18
  5372  0B47                     __ptext18:	
  5373 ;; *************** function _LCD_dwr *****************
  5374 ;; Defined at:
  5375 ;;		line 46 in file "LCD.c"
  5376 ;; Parameters:    Size  Location     Type
  5377 ;;  x               1    wreg     unsigned char 
  5378 ;; Auto vars:     Size  Location     Type
  5379 ;;  x               1    4[COMMON] unsigned char 
  5380 ;; Return value:  Size  Location     Type
  5381 ;;                  1    wreg      void 
  5382 ;; Registers used:
  5383 ;;		wreg, status,2, status,0, pclath, cstack
  5384 ;; Tracked objects:
  5385 ;;		On entry : 0/0
  5386 ;;		On exit  : 0/0
  5387 ;;		Unchanged: 0/0
  5388 ;; Data sizes:     COMMON   BANK0   BANK1   BANK3   BANK2
  5389 ;;      Params:         0       0       0       0       0
  5390 ;;      Locals:         1       0       0       0       0
  5391 ;;      Temps:          0       0       0       0       0
  5392 ;;      Totals:         1       0       0       0       0
  5393 ;;Total ram usage:        1 bytes
  5394 ;; Hardware stack levels used:    1
  5395 ;; Hardware stack levels required when called:    2
  5396 ;; This function calls:
  5397 ;;		_LCD_lat
  5398 ;;		_LCD_ready
  5399 ;; This function is called by:
  5400 ;;		_LCD_msg
  5401 ;; This function uses a non-reentrant model
  5402 ;;
  5403                           
  5404                           
  5405                           ;psect for function _LCD_dwr
  5406  0B47                     _LCD_dwr:	
  5407                           
  5408                           ;incstack = 0
  5409                           ; Regs used in _LCD_dwr: [wreg+status,2+status,0+pclath+cstack]
  5410                           ;LCD_dwr@x stored from wreg
  5411  0B47  00F4               	movwf	LCD_dwr@x
  5412  0B48                     l1614:	
  5413                           
  5414                           ;LCD.c: 47:     LCD_ready();
  5415  0B48  120A  158A  242E  120A  158A  	fcall	_LCD_ready
  5416  0B4D                     l1616:	
  5417                           
  5418                           ;LCD.c: 48:     PORTB = x;
  5419  0B4D  0874               	movf	LCD_dwr@x,w
  5420  0B4E  1283               	bcf	3,5	;RP0=0, select bank0
  5421  0B4F  1303               	bcf	3,6	;RP1=0, select bank0
  5422  0B50  0086               	movwf	6	;volatile
  5423  0B51                     l1618:	
  5424                           
  5425                           ;LCD.c: 49:     PORTCbits.RC3 = 1;
  5426  0B51  1587               	bsf	7,3	;volatile
  5427  0B52                     l1620:	
  5428                           
  5429                           ;LCD.c: 50:     PORTCbits.RC4 = 0;
  5430  0B52  1207               	bcf	7,4	;volatile
  5431  0B53                     l1622:	
  5432                           
  5433                           ;LCD.c: 51:     LCD_lat();
  5434  0B53  120A  158A  2326  120A  158A  	fcall	_LCD_lat
  5435  0B58                     l84:	
  5436  0B58  0008               	return
  5437  0B59                     __end_of_LCD_dwr:	
  5438                           
  5439                           	psect	text19
  5440  0B35                     __ptext19:	
  5441 ;; *************** function _LCD_cmd *****************
  5442 ;; Defined at:
  5443 ;;		line 16 in file "LCD.c"
  5444 ;; Parameters:    Size  Location     Type
  5445 ;;  x               1    wreg     unsigned char 
  5446 ;; Auto vars:     Size  Location     Type
  5447 ;;  x               1    4[COMMON] unsigned char 
  5448 ;; Return value:  Size  Location     Type
  5449 ;;                  1    wreg      void 
  5450 ;; Registers used:
  5451 ;;		wreg, status,2, status,0, pclath, cstack
  5452 ;; Tracked objects:
  5453 ;;		On entry : 0/0
  5454 ;;		On exit  : 0/0
  5455 ;;		Unchanged: 0/0
  5456 ;; Data sizes:     COMMON   BANK0   BANK1   BANK3   BANK2
  5457 ;;      Params:         0       0       0       0       0
  5458 ;;      Locals:         1       0       0       0       0
  5459 ;;      Temps:          0       0       0       0       0
  5460 ;;      Totals:         1       0       0       0       0
  5461 ;;Total ram usage:        1 bytes
  5462 ;; Hardware stack levels used:    1
  5463 ;; Hardware stack levels required when called:    2
  5464 ;; This function calls:
  5465 ;;		_LCD_lat
  5466 ;;		_LCD_ready
  5467 ;; This function is called by:
  5468 ;;		_inicio
  5469 ;;		_ADC
  5470 ;; This function uses a non-reentrant model
  5471 ;;
  5472                           
  5473                           
  5474                           ;psect for function _LCD_cmd
  5475  0B35                     _LCD_cmd:	
  5476                           
  5477                           ;incstack = 0
  5478                           ; Regs used in _LCD_cmd: [wreg+status,2+status,0+pclath+cstack]
  5479                           ;LCD_cmd@x stored from wreg
  5480  0B35  00F4               	movwf	LCD_cmd@x
  5481  0B36                     l1668:	
  5482                           
  5483                           ;LCD.c: 17:     LCD_ready();
  5484  0B36  120A  158A  242E  120A  158A  	fcall	_LCD_ready
  5485  0B3B                     l1670:	
  5486                           
  5487                           ;LCD.c: 18:     PORTB = x;
  5488  0B3B  0874               	movf	LCD_cmd@x,w
  5489  0B3C  1283               	bcf	3,5	;RP0=0, select bank0
  5490  0B3D  1303               	bcf	3,6	;RP1=0, select bank0
  5491  0B3E  0086               	movwf	6	;volatile
  5492  0B3F                     l1672:	
  5493                           
  5494                           ;LCD.c: 19:     PORTCbits.RC3 = 0;
  5495  0B3F  1187               	bcf	7,3	;volatile
  5496  0B40                     l1674:	
  5497                           
  5498                           ;LCD.c: 20:     PORTCbits.RC4 = 0;
  5499  0B40  1207               	bcf	7,4	;volatile
  5500  0B41                     l1676:	
  5501                           
  5502                           ;LCD.c: 21:     LCD_lat();
  5503  0B41  120A  158A  2326  120A  158A  	fcall	_LCD_lat
  5504  0B46                     l73:	
  5505  0B46  0008               	return
  5506  0B47                     __end_of_LCD_cmd:	
  5507                           
  5508                           	psect	text20
  5509  0C2E                     __ptext20:	
  5510 ;; *************** function _LCD_ready *****************
  5511 ;; Defined at:
  5512 ;;		line 29 in file "LCD.c"
  5513 ;; Parameters:    Size  Location     Type
  5514 ;;		None
  5515 ;; Auto vars:     Size  Location     Type
  5516 ;;		None
  5517 ;; Return value:  Size  Location     Type
  5518 ;;                  1    wreg      void 
  5519 ;; Registers used:
  5520 ;;		wreg, status,2, status,0
  5521 ;; Tracked objects:
  5522 ;;		On entry : 0/0
  5523 ;;		On exit  : 0/0
  5524 ;;		Unchanged: 0/0
  5525 ;; Data sizes:     COMMON   BANK0   BANK1   BANK3   BANK2
  5526 ;;      Params:         0       0       0       0       0
  5527 ;;      Locals:         0       0       0       0       0
  5528 ;;      Temps:          2       0       0       0       0
  5529 ;;      Totals:         2       0       0       0       0
  5530 ;;Total ram usage:        2 bytes
  5531 ;; Hardware stack levels used:    1
  5532 ;; Hardware stack levels required when called:    1
  5533 ;; This function calls:
  5534 ;;		Nothing
  5535 ;; This function is called by:
  5536 ;;		_LCD_cmd
  5537 ;;		_LCD_dwr
  5538 ;; This function uses a non-reentrant model
  5539 ;;
  5540                           
  5541                           
  5542                           ;psect for function _LCD_ready
  5543  0C2E                     _LCD_ready:	
  5544  0C2E                     l1540:	
  5545                           ;incstack = 0
  5546                           ; Regs used in _LCD_ready: [wreg+status,2+status,0]
  5547                           
  5548                           
  5549                           ;LCD.c: 30:     PORTB = 0xFF;
  5550  0C2E  30FF               	movlw	255
  5551  0C2F  1283               	bcf	3,5	;RP0=0, select bank0
  5552  0C30  1303               	bcf	3,6	;RP1=0, select bank0
  5553  0C31  0086               	movwf	6	;volatile
  5554  0C32                     l1542:	
  5555                           
  5556                           ;LCD.c: 31:     PORTB &= 0x80;
  5557  0C32  3080               	movlw	128
  5558  0C33  00F2               	movwf	??_LCD_ready
  5559  0C34  0872               	movf	??_LCD_ready,w
  5560  0C35  0586               	andwf	6,f	;volatile
  5561  0C36                     l1544:	
  5562                           
  5563                           ;LCD.c: 32:     PORTCbits.RC3 = 0;
  5564  0C36  1187               	bcf	7,3	;volatile
  5565  0C37                     l1546:	
  5566                           
  5567                           ;LCD.c: 33:     PORTCbits.RC4 = 1;
  5568  0C37  1607               	bsf	7,4	;volatile
  5569  0C38                     l1548:	
  5570                           
  5571                           ;LCD.c: 34:     PORTCbits.RC5 = 0;
  5572  0C38  1287               	bcf	7,5	;volatile
  5573  0C39                     l1550:	
  5574                           
  5575                           ;LCD.c: 35:     _delay((unsigned long)((30)*(4000000/4000.0)));
  5576  0C39  3027               	movlw	39
  5577  0C3A  00F3               	movwf	??_LCD_ready+1
  5578  0C3B  30F5               	movlw	245
  5579  0C3C  00F2               	movwf	??_LCD_ready
  5580  0C3D                     u3427:	
  5581  0C3D  0BF2               	decfsz	??_LCD_ready,f
  5582  0C3E  2C3D               	goto	u3427
  5583  0C3F  0BF3               	decfsz	??_LCD_ready+1,f
  5584  0C40  2C3D               	goto	u3427
  5585  0C41                     l1552:	
  5586                           
  5587                           ;LCD.c: 36:     PORTCbits.RC5 = 1;
  5588  0C41  1283               	bcf	3,5	;RP0=0, select bank0
  5589  0C42  1303               	bcf	3,6	;RP1=0, select bank0
  5590  0C43  1687               	bsf	7,5	;volatile
  5591                           
  5592                           ;LCD.c: 37:     if (PORTB == 0x80){
  5593  0C44  3080               	movlw	128
  5594  0C45  0606               	xorwf	6,w	;volatile
  5595  0C46  1D03               	btfss	3,2
  5596  0C47  2C49               	goto	u1391
  5597  0C48  2C4A               	goto	u1390
  5598  0C49                     u1391:	
  5599  0C49  2C56               	goto	l81
  5600  0C4A                     u1390:	
  5601  0C4A                     l1554:	
  5602                           
  5603                           ;LCD.c: 38:     PORTCbits.RC5 = 0;
  5604  0C4A  1287               	bcf	7,5	;volatile
  5605  0C4B                     l1556:	
  5606                           
  5607                           ;LCD.c: 39:     _delay((unsigned long)((30)*(4000000/4000.0)));
  5608  0C4B  3027               	movlw	39
  5609  0C4C  00F3               	movwf	??_LCD_ready+1
  5610  0C4D  30F5               	movlw	245
  5611  0C4E  00F2               	movwf	??_LCD_ready
  5612  0C4F                     u3437:	
  5613  0C4F  0BF2               	decfsz	??_LCD_ready,f
  5614  0C50  2C4F               	goto	u3437
  5615  0C51  0BF3               	decfsz	??_LCD_ready+1,f
  5616  0C52  2C4F               	goto	u3437
  5617  0C53                     l1558:	
  5618                           
  5619                           ;LCD.c: 40:     PORTCbits.RC5 = 1;
  5620  0C53  1283               	bcf	3,5	;RP0=0, select bank0
  5621  0C54  1303               	bcf	3,6	;RP1=0, select bank0
  5622  0C55  1687               	bsf	7,5	;volatile
  5623  0C56                     l81:	
  5624                           ;LCD.c: 41:     }
  5625                           
  5626  0C56  0008               	return
  5627  0C57                     __end_of_LCD_ready:	
  5628                           
  5629                           	psect	text21
  5630  0B26                     __ptext21:	
  5631 ;; *************** function _LCD_lat *****************
  5632 ;; Defined at:
  5633 ;;		line 24 in file "LCD.c"
  5634 ;; Parameters:    Size  Location     Type
  5635 ;;		None
  5636 ;; Auto vars:     Size  Location     Type
  5637 ;;		None
  5638 ;; Return value:  Size  Location     Type
  5639 ;;                  1    wreg      void 
  5640 ;; Registers used:
  5641 ;;		wreg
  5642 ;; Tracked objects:
  5643 ;;		On entry : 0/0
  5644 ;;		On exit  : 0/0
  5645 ;;		Unchanged: 0/0
  5646 ;; Data sizes:     COMMON   BANK0   BANK1   BANK3   BANK2
  5647 ;;      Params:         0       0       0       0       0
  5648 ;;      Locals:         0       0       0       0       0
  5649 ;;      Temps:          2       0       0       0       0
  5650 ;;      Totals:         2       0       0       0       0
  5651 ;;Total ram usage:        2 bytes
  5652 ;; Hardware stack levels used:    1
  5653 ;; Hardware stack levels required when called:    1
  5654 ;; This function calls:
  5655 ;;		Nothing
  5656 ;; This function is called by:
  5657 ;;		_LCD_cmd
  5658 ;;		_LCD_dwr
  5659 ;; This function uses a non-reentrant model
  5660 ;;
  5661                           
  5662                           
  5663                           ;psect for function _LCD_lat
  5664  0B26                     _LCD_lat:	
  5665  0B26                     l1560:	
  5666                           ;incstack = 0
  5667                           ; Regs used in _LCD_lat: [wreg]
  5668                           
  5669                           
  5670                           ;LCD.c: 25:     PORTCbits.RC5 = 1;
  5671  0B26  1283               	bcf	3,5	;RP0=0, select bank0
  5672  0B27  1303               	bcf	3,6	;RP1=0, select bank0
  5673  0B28  1687               	bsf	7,5	;volatile
  5674  0B29                     l1562:	
  5675                           
  5676                           ;LCD.c: 26:    _delay((unsigned long)((30)*(4000000/4000.0)));
  5677  0B29  3027               	movlw	39
  5678  0B2A  00F3               	movwf	??_LCD_lat+1
  5679  0B2B  30F5               	movlw	245
  5680  0B2C  00F2               	movwf	??_LCD_lat
  5681  0B2D                     u3447:	
  5682  0B2D  0BF2               	decfsz	??_LCD_lat,f
  5683  0B2E  2B2D               	goto	u3447
  5684  0B2F  0BF3               	decfsz	??_LCD_lat+1,f
  5685  0B30  2B2D               	goto	u3447
  5686  0B31                     l1564:	
  5687                           
  5688                           ;LCD.c: 27:    PORTCbits.RC5 = 0;
  5689  0B31  1283               	bcf	3,5	;RP0=0, select bank0
  5690  0B32  1303               	bcf	3,6	;RP1=0, select bank0
  5691  0B33  1287               	bcf	7,5	;volatile
  5692  0B34                     l76:	
  5693  0B34  0008               	return
  5694  0B35                     __end_of_LCD_lat:	
  5695                           
  5696                           	psect	text22
  5697  0B6C                     __ptext22:	
  5698 ;; *************** function _ISR *****************
  5699 ;; Defined at:
  5700 ;;		line 60 in file "main.c"
  5701 ;; Parameters:    Size  Location     Type
  5702 ;;		None
  5703 ;; Auto vars:     Size  Location     Type
  5704 ;;		None
  5705 ;; Return value:  Size  Location     Type
  5706 ;;                  1    wreg      void 
  5707 ;; Registers used:
  5708 ;;		wreg, status,2, status,0
  5709 ;; Tracked objects:
  5710 ;;		On entry : 0/0
  5711 ;;		On exit  : 0/0
  5712 ;;		Unchanged: 0/0
  5713 ;; Data sizes:     COMMON   BANK0   BANK1   BANK3   BANK2
  5714 ;;      Params:         0       0       0       0       0
  5715 ;;      Locals:         0       0       0       0       0
  5716 ;;      Temps:          2       0       0       0       0
  5717 ;;      Totals:         2       0       0       0       0
  5718 ;;Total ram usage:        2 bytes
  5719 ;; Hardware stack levels used:    1
  5720 ;; This function calls:
  5721 ;;		Nothing
  5722 ;; This function is called by:
  5723 ;;		Interrupt level 1
  5724 ;; This function uses a non-reentrant model
  5725 ;;
  5726                           
  5727                           
  5728                           ;psect for function _ISR
  5729  0B6C                     _ISR:	
  5730  0B6C                     i1l1526:	
  5731                           
  5732                           ;main.c: 63:     if (PIR1bits.RCIF == 1)
  5733  0B6C  1283               	bcf	3,5	;RP0=0, select bank0
  5734  0B6D  1303               	bcf	3,6	;RP1=0, select bank0
  5735  0B6E  1E8C               	btfss	12,5	;volatile
  5736  0B6F  2B71               	goto	u137_21
  5737  0B70  2B72               	goto	u137_20
  5738  0B71                     u137_21:	
  5739  0B71  2B7C               	goto	i1l49
  5740  0B72                     u137_20:	
  5741  0B72                     i1l1528:	
  5742                           
  5743                           ;main.c: 64:     {;main.c: 66:         PIR1bits.RCIF = 0;
  5744  0B72  128C               	bcf	12,5	;volatile
  5745  0B73                     i1l1530:	
  5746                           
  5747                           ;main.c: 67:         TXREG = (RCREG + 1);
  5748  0B73  081A               	movf	26,w	;volatile
  5749  0B74  3E01               	addlw	1
  5750  0B75  0099               	movwf	25	;volatile
  5751  0B76                     i1l46:	
  5752                           ;main.c: 68:         while (TXSTAbits.TRMT == 0);
  5753                           
  5754  0B76  1683               	bsf	3,5	;RP0=1, select bank1
  5755  0B77  1303               	bcf	3,6	;RP1=0, select bank1
  5756  0B78  1C98               	btfss	24,1	;volatile
  5757  0B79  2B7B               	goto	u138_21
  5758  0B7A  2B7C               	goto	u138_20
  5759  0B7B                     u138_21:	
  5760  0B7B  2B76               	goto	i1l46
  5761  0B7C                     u138_20:	
  5762  0B7C                     i1l49:	
  5763  0B7C  0871               	movf	??_ISR+1,w
  5764  0B7D  008A               	movwf	10
  5765  0B7E  0E70               	swapf	??_ISR^(0+4294967168),w
  5766  0B7F  0083               	movwf	3
  5767  0B80  0EFE               	swapf	btemp,f
  5768  0B81  0E7E               	swapf	btemp,w
  5769  0B82  0009               	retfie
  5770  0B83                     __end_of_ISR:	
  5771  007E                     btemp	set	126	;btemp
  5772  007E                     wtemp0	set	126
  5773                           
  5774                           	psect	intentry
  5775  0004                     __pintentry:	
  5776                           ;incstack = 0
  5777                           ; Regs used in _ISR: [wreg+status,2+status,0]
  5778                           
  5779  0004                     interrupt_function:	
  5780  007E                     saved_w	set	btemp
  5781  0004  00FE               	movwf	btemp
  5782  0005  0E03               	swapf	3,w
  5783  0006  00F0               	movwf	??_ISR
  5784  0007  080A               	movf	10,w
  5785  0008  00F1               	movwf	??_ISR+1
  5786  0009  120A  158A  2B6C   	ljmp	_ISR


Data Sizes:
    Strings     22
    Constant    0
    Data        0
    BSS         75
    Persistent  0
    Stack       0

Auto Spaces:
    Space          Size  Autos    Used
    COMMON           14     10      12
    BANK0            80     62      80
    BANK1            80      0      55
    BANK3            96      0       0
    BANK2            96      0       0

Pointer List with Targets:

    strcpy@from	PTR const unsigned char  size(1) Largest target is 2
		 -> STR_3(CODE[2]), STR_2(CODE[2]), 

    strcpy@to	PTR unsigned char  size(1) Largest target is 5
		 -> POINTERB(BANK1[5]), POINTERA(BANK1[5]), 

    strcpy@cp	PTR unsigned char  size(1) Largest target is 5
		 -> POINTERB(BANK1[5]), POINTERA(BANK1[5]), 

    strcat@from	PTR const unsigned char  size(1) Largest target is 5
		 -> POINTERB(BANK1[5]), ADCAB_CHARB(BANK1[5]), ADCAA_CHARA(BANK1[5]), POINTERA(BANK1[5]), 
		 -> ADCB_CHARB(BANK1[5]), ADCA_CHARA(BANK1[5]), 

    strcat@to	PTR unsigned char  size(1) Largest target is 5
		 -> POINTERB(BANK1[5]), ADCAC_CHARC(BANK1[5]), ADCAB_CHARB(BANK1[5]), POINTERA(BANK1[5]), 
		 -> ADCC_CHARC(BANK1[5]), ADCB_CHARB(BANK1[5]), 

    strcat@cp	PTR unsigned char  size(1) Largest target is 5
		 -> POINTERB(BANK1[5]), ADCAC_CHARC(BANK1[5]), ADCAB_CHARB(BANK1[5]), POINTERA(BANK1[5]), 
		 -> ADCC_CHARC(BANK1[5]), ADCB_CHARB(BANK1[5]), 

    utoa@buf	PTR unsigned char  size(1) Largest target is 5
		 -> ADCAC_CHARC(BANK1[5]), ADCAB_CHARB(BANK1[5]), ADCAA_CHARA(BANK1[5]), ADCC_CHARC(BANK1[5]), 
		 -> ADCB_CHARB(BANK1[5]), ADCA_CHARA(BANK1[5]), ARDUINO(BANK1[5]), 

    sp__utoa	PTR unsigned char  size(1) Largest target is 5
		 -> ADCAC_CHARC(BANK1[5]), ADCAB_CHARB(BANK1[5]), ADCAA_CHARA(BANK1[5]), ADCC_CHARC(BANK1[5]), 
		 -> ADCB_CHARB(BANK1[5]), ADCA_CHARA(BANK1[5]), ARDUINO(BANK1[5]), 

    itoa@buf	PTR unsigned char  size(1) Largest target is 5
		 -> ADCAC_CHARC(BANK1[5]), ADCAB_CHARB(BANK1[5]), ADCAA_CHARA(BANK1[5]), ADCC_CHARC(BANK1[5]), 
		 -> ADCB_CHARB(BANK1[5]), ADCA_CHARA(BANK1[5]), ARDUINO(BANK1[5]), 

    itoa@cp	PTR unsigned char  size(1) Largest target is 5
		 -> ADCAC_CHARC(BANK1[5]), ADCAB_CHARB(BANK1[5]), ADCAA_CHARA(BANK1[5]), ADCC_CHARC(BANK1[5]), 
		 -> ADCB_CHARB(BANK1[5]), ADCA_CHARA(BANK1[5]), ARDUINO(BANK1[5]), 

    sp__strcpy	PTR unsigned char  size(1) Largest target is 5
		 -> POINTERB(BANK1[5]), POINTERA(BANK1[5]), 

    sp__strcat	PTR unsigned char  size(1) Largest target is 5
		 -> POINTERB(BANK1[5]), ADCAC_CHARC(BANK1[5]), ADCAB_CHARB(BANK1[5]), POINTERA(BANK1[5]), 
		 -> ADCC_CHARC(BANK1[5]), ADCB_CHARB(BANK1[5]), 

    sp__itoa	PTR unsigned char  size(1) Largest target is 5
		 -> ADCAC_CHARC(BANK1[5]), ADCAB_CHARB(BANK1[5]), ADCAA_CHARA(BANK1[5]), ADCC_CHARC(BANK1[5]), 
		 -> ADCB_CHARB(BANK1[5]), ADCA_CHARA(BANK1[5]), ARDUINO(BANK1[5]), 

    LCD_msg@c	PTR unsigned char  size(2) Largest target is 17
		 -> STR_5(CODE[3]), STR_4(CODE[3]), ADCAC_CHARC(BANK1[5]), ADCC_CHARC(BANK1[5]), 
		 -> STR_1(CODE[17]), ARDUINO(BANK1[5]), 


Critical Paths under _main in COMMON

    _inicio->_LCD_cmd
    _ADC->___awmod
    _ADC->___xxtofl
    _utoa->___lwdiv
    ___flmul->___xxtofl
    ___fldiv->___xxtofl
    ___awmod->___awdiv
    _LCD_msg->_LCD_dwr
    _LCD_dwr->_LCD_lat
    _LCD_dwr->_LCD_ready
    _LCD_cmd->_LCD_lat
    _LCD_cmd->_LCD_ready

Critical Paths under _ISR in COMMON

    None.

Critical Paths under _main in BANK0

    _main->_ADC
    _ADC->___fldiv
    _itoa->_utoa
    ___fltol->___flmul
    ___flmul->___xxtofl
    ___fldiv->___flmul
    ___awmod->___awdiv

Critical Paths under _ISR in BANK0

    None.

Critical Paths under _main in BANK1

    None.

Critical Paths under _ISR in BANK1

    None.

Critical Paths under _main in BANK3

    None.

Critical Paths under _ISR in BANK3

    None.

Critical Paths under _main in BANK2

    None.

Critical Paths under _ISR in BANK2

    None.

Call Graph Tables:

 ---------------------------------------------------------------------------------
 (Depth) Function   	        Calls       Base Space   Used Autos Params    Refs
 ---------------------------------------------------------------------------------
 (0) _main                                                 0     0      0   13641
                                _ADC
                             _inicio
                              _setup
 ---------------------------------------------------------------------------------
 (1) _setup                                                0     0      0       0
 ---------------------------------------------------------------------------------
 (1) _inicio                                               0     0      0      22
                            _LCD_cmd
 ---------------------------------------------------------------------------------
 (1) _ADC                                                  4     4      0   13619
                                             58 BANK0      4     4      0
                            _LCD_cmd
                            _LCD_msg
                            ___awdiv
                            ___awmod
                            ___fldiv
                            ___flmul
                            ___fltol
                           ___xxtofl
                               _itoa
                             _strcat
                             _strcpy
 ---------------------------------------------------------------------------------
 (3) _strcpy                                               4     3      1     293
                                              2 COMMON     4     3      1
 ---------------------------------------------------------------------------------
 (2) _strcat                                               4     3      1     752
                                              2 COMMON     4     3      1
 ---------------------------------------------------------------------------------
 (2) _itoa                                                 7     3      4    3178
                                              9 BANK0      7     3      4
                               _utoa
 ---------------------------------------------------------------------------------
 (3) _utoa                                                 9     5      4    1433
                                              0 BANK0      9     5      4
                            ___lwdiv
                            ___lwmod
 ---------------------------------------------------------------------------------
 (4) ___lwmod                                              6     2      4     311
                                              2 COMMON     6     2      4
 ---------------------------------------------------------------------------------
 (4) ___lwdiv                                              8     4      4     466
                                              2 COMMON     8     4      4
 ---------------------------------------------------------------------------------
 (2) ___xxtofl                                            14    10      4     474
                                              2 COMMON     8     4      4
                                              0 BANK0      6     6      0
 ---------------------------------------------------------------------------------
 (2) ___fltol                                             11     7      4     381
                                             32 BANK0     11     7      4
                            ___flmul (ARG)
 ---------------------------------------------------------------------------------
 (2) ___flmul                                             26    18      8    3893
                                              6 BANK0     26    18      8
                          __Umul8_16
                           ___xxtofl (ARG)
 ---------------------------------------------------------------------------------
 (3) __Umul8_16                                            9     7      2     980
                                              2 COMMON     4     2      2
                                              0 BANK0      5     5      0
 ---------------------------------------------------------------------------------
 (2) ___fldiv                                             26    18      8    1425
                                             32 BANK0     26    18      8
                            ___flmul (ARG)
                           ___xxtofl (ARG)
 ---------------------------------------------------------------------------------
 (2) ___awmod                                              7     3      4    1513
                                              7 COMMON     3     3      0
                                              4 BANK0      4     0      4
                            ___awdiv (ARG)
 ---------------------------------------------------------------------------------
 (2) ___awdiv                                              9     5      4    1165
                                              2 COMMON     5     1      4
                                              0 BANK0      4     4      0
 ---------------------------------------------------------------------------------
 (2) _LCD_msg                                              2     0      2     523
                                              5 COMMON     2     0      2
                            _LCD_dwr
 ---------------------------------------------------------------------------------
 (3) _LCD_dwr                                              1     1      0      22
                                              4 COMMON     1     1      0
                            _LCD_lat
                          _LCD_ready
 ---------------------------------------------------------------------------------
 (2) _LCD_cmd                                              1     1      0      22
                                              4 COMMON     1     1      0
                            _LCD_lat
                          _LCD_ready
 ---------------------------------------------------------------------------------
 (3) _LCD_ready                                            2     2      0       0
                                              2 COMMON     2     2      0
 ---------------------------------------------------------------------------------
 (3) _LCD_lat                                              2     2      0       0
                                              2 COMMON     2     2      0
 ---------------------------------------------------------------------------------
 Estimated maximum stack depth 4
 ---------------------------------------------------------------------------------
 (Depth) Function   	        Calls       Base Space   Used Autos Params    Refs
 ---------------------------------------------------------------------------------
 (5) _ISR                                                  2     2      0       0
                                              0 COMMON     2     2      0
 ---------------------------------------------------------------------------------
 Estimated maximum stack depth 5
 ---------------------------------------------------------------------------------

 Call Graph Graphs:

 _main (ROOT)
   _ADC
     _LCD_cmd
       _LCD_lat
       _LCD_ready
     _LCD_msg
       _LCD_dwr
         _LCD_lat
         _LCD_ready
     ___awdiv
     ___awmod
       ___awdiv (ARG)
     ___fldiv
       ___flmul (ARG)
         __Umul8_16
         ___xxtofl (ARG)
       ___xxtofl (ARG)
     ___flmul
       __Umul8_16
       ___xxtofl (ARG)
     ___fltol
       ___flmul (ARG)
         __Umul8_16
         ___xxtofl (ARG)
     ___xxtofl
     _itoa
       _utoa
         ___lwdiv
         ___lwmod
     _strcat
     _strcpy
   _inicio
     _LCD_cmd
       _LCD_lat
       _LCD_ready
   _setup

 _ISR (ROOT)

 Address spaces:
Name               Size   Autos  Total    Cost      Usage
BITCOMMON            E      0       0       0        0.0%
EEDATA             100      0       0       0        0.0%
NULL                 0      0       0       0        0.0%
CODE                 0      0       0       0        0.0%
COMMON               E      A       C       1       85.7%
BITSFR0              0      0       0       1        0.0%
SFR0                 0      0       0       1        0.0%
BITSFR1              0      0       0       2        0.0%
SFR1                 0      0       0       2        0.0%
STACK                0      0       0       2        0.0%
ABS                  0      0      93       3        0.0%
BITBANK0            50      0       0       4        0.0%
BITSFR3              0      0       0       4        0.0%
SFR3                 0      0       0       4        0.0%
BANK0               50     3E      50       5      100.0%
BITSFR2              0      0       0       5        0.0%
SFR2                 0      0       0       5        0.0%
BITBANK1            50      0       0       6        0.0%
BANK1               50      0      37       7       68.8%
BITBANK3            60      0       0       8        0.0%
BANK3               60      0       0       9        0.0%
BITBANK2            60      0       0      10        0.0%
BANK2               60      0       0      11        0.0%
DATA                 0      0      93      12        0.0%


Microchip Technology PIC Macro Assembler V2.10 build 88905656 
Symbol Table                                                                                   Fri Feb 12 02:41:38 2021

            ___fldiv@aexp 0059              ___fldiv@bexp 0058                         pc 0002  
            ___fldiv@sign 0051               __CFG_CP$OFF 0000                        l60 0BC0  
                      l54 0B5E                        l81 0C56                        l73 0B46  
                      l90 0C07                        l76 0B34                        l84 0B58  
                      l93 0BA1                        _PI 005E              ___awdiv@sign 0021  
                      fsr 0004       __Umul8_16@word_mpld 0022                       _DC1 006E  
                     _DC2 0066                       l163 0387                       l165 03AA  
                     l414 0DB0                       _ADC 0387                       l168 0506  
                     l610 0E7F                       l427 0D47                       l612 0FFF  
                     l701 070E                       l533 0CEC                       l454 07AB  
                     l702 071A                       l447 07C0                       l543 07FA  
                     l632 0FE3                       l457 07C0                       l634 0FF3  
                     l626 0F71                       l650 0386                       l715 0E0B  
                     l732 0BE1                       l717 0E22                       l709 0C2D  
                     l662 037A                       l726 0CA8                       l736 0C6D  
                     l656 02F2                       l738 0C7F                       l690 0744  
                     l694 06F2                       l688 06AD              __CFG_CPD$OFF 0000  
                     _ISR 0B6C                       _plc 00A8                       fsr0 0004  
                     indf 0000              ___awmod@sign 0079              ___flmul@aexp 0034  
            ___flmul@bexp 0039              ___flmul@sign 0033              ___flmul@temp 003E  
            ___flmul@prod 003A                      ?_ADC 0070              __CFG_LVP$OFF 0000  
                    ?_ISR 0070           __end_of_LCD_cmd 0B47           __end_of_LCD_lat 0B35  
            ___fltol@exp1 004A           __end_of_LCD_dwr 0B59           __end_of_LCD_msg 0C08  
                    l2120 0695                      l2130 06C3                      l2122 06A5  
                    l2140 06F9                      l2132 06D0                      l2124 06B5  
                    l2116 068C                      l2300 0E18                      l1420 0BA7  
                    l2150 0732                      l2142 0704                      l2134 06D7  
                    l2118 0691                      l2302 0E1E                      l2310 0C0F  
                    l1430 0BBF                      l1422 0BB6                      l2320 0D48  
                    l2152 0737                      l2144 0708                      l2136 06DB  
                    l2128 06BE                      l1600 07D5                      l2312 0C16  
                    l2160 0B83                      l1424 0BBC                      l1416 0BA2  
                    l2330 0D5A                      l2322 0D4B                      l2410 0038  
                    l2402 0026                      l2154 073B                      l2146 0712  
                    l2138 06E9                      l1602 07D9                      l1610 07F6  
                    l2314 0C1A                      l2306 0C0B                      l1426 0BBD  
                    l1418 0BA6                      l1540 0C2E                      l1620 0B52  
                    l2340 0D6E                      l2332 0D5F                      l2324 0D4F  
                    l2500 02D6                      l2420 0054                      l2412 003D  
                    l2404 002D                      l2156 073C                      l2148 071C  
                    l1604 07E3                      l2316 0C1F                      l2308 0C0B  
                    l1700 0C81                      l1428 0BBE                      l1550 0C39  
                    l1542 0C32                      l1622 0B53                      l1614 0B48  
                    l2350 0D94                      l2342 0D75                      l2334 0D63  
                    l2326 0D54                      l2270 0C76                      l2262 0C5A  
                    l2510 02F7                      l2502 02D7                      l2430 0069  
                    l2422 0059                      l2414 0042                      l2406 0033  
                    l1606 07E9                      l1702 0C86                      l1710 0BC2  
                    l1560 0B26                      l1552 0C41                      l1544 0C36  
                    l1616 0B4D                      l2360 0DAC                      l2352 0D95  
                    l2344 0D79                      l2336 0D65                      l2328 0D56  
                    l2272 0C7B                      l2264 0C5C                      l2512 02FC  
                    l2520 032D                      l2504 02DB                      l2440 0085  
                    l2432 006E                      l2424 005F                      l2416 004A  
                    l2408 0037                      l1800 0752                      l1608 07F0  
                    l2280 0DCB                      l1704 0C8A                      l1712 0BC7  
                    l2600 0567                      l1562 0B29                      l1554 0C4A  
                    l1546 0C37                      l1618 0B51                      l2354 0D9C  
                    l2346 0D7D                      l2338 0D6B                      l2370 0CF9  
                    l2266 0C63                      l2530 0360                      l2522 033A  
                    l2514 030A                      l2506 02EF                      l2450 00B0  
                    l2442 008A                      l2434 0076                      l2426 0063  
                    l2418 004C                      l1810 0779                      l1570 0CB1  
                    l2290 0DEE                      l2282 0DCF                      l1706 0C93  
                    l1714 0BCF                      l2610 05F2                      l2602 059F  
                    l1564 0B31                      l1556 0C4B                      l1548 0C38  
                    l2348 0D8E                      l2356 0DA2                      l2380 0D0D  
                    l2372 0CFB                      l2364 0CED                      l1900 0EDF  
                    l2268 0C67                      l2532 036E                      l2524 0345  
                    l2516 030E                      l2460 014D                      l2452 00CD  
                    l2436 0078                      l2428 0064                      l1820 0787  
                    l1812 077B                      l1804 075B                      l1580 0CD4  
                    l1572 0CB4                      l2292 0E01                      l2284 0DD5  
                    l2276 0DB4                      l1708 0C9B                      l2620 0648  
                    l2612 0616                      l2604 05B2                      l1558 0C53  
                    l1670 0B3B                      l2358 0DA7                      l2390 0D2C  
                    l2382 0D14                      l2374 0CFF                      l2366 0CEE  
                    l1910 0F11                      l1902 0EF1                      l2534 0372  
                    l2526 0354                      l2518 0327                      l2470 01B0  
                    l2462 0156                      l2454 00E9                      l2446 0093  
                    l2438 0080                      l1830 07B0                      l1814 077F  
                    l1822 0799                      l1806 0770                      l1582 0CDA  
                    l1574 0CBB                      l1566 0CA9                      l2294 0E07  
                    l2286 0DD9                      l2278 0DB8                      l2630 0675  
                    l2622 0654                      l2614 0624                      l2606 05C0  
                    l2550 0392                      l2542 0387                      l1672 0B3F  
                    l1680 0BE3                      l2392 0D33                      l2384 0D18  
                    l2376 0D04                      l2368 0CF4                      l1920 0F32  
                    l1912 0F12                      l1904 0EF5                      l1840 0E34  
                    l2536 0373                      l2528 035E                      l2480 0250  
                    l2472 01C9                      l2464 0166                      l2456 0115  
                    l2448 00A3                      l1832 07B5                      l1808 0771  
                    l1584 0CDB                      l1576 0CBF                      l1568 0CAB  
                    l1592 07C1                      l2296 0E0F                      l2288 0DDB  
                    l2632 067E                      l2624 065A                      l2616 0630  
                    l2608 05E4                      l2560 03A9                      l2552 0393  
                    l2544 038D                      l1674 0B40                      l1682 0BF1  
                    l2386 0D1C                      l2378 0D0A                      l2394 0D39  
                    l1930 0F4B                      l1922 0F34                      l1914 0F20  
                    l1906 0EF6                      l1850 0E48                      l1842 0E35  
                    l1834 0E23                      l2538 037E                      l2490 02BE  
                    l2482 0276                      l2474 01E6                      l2466 0183  
                    l2458 0131                      l1586 0CE2                      l1578 0CC3  
                    l1594 07C7                      l2298 0E16                      l2626 0663  
                    l2618 063C                      l2570 0456                      l2562 03AE  
                    l2554 039C                      l2546 038E                      l2634 0B59  
                    l1676 0B41                      l1668 0B36                      l1684 0BF7  
                    l2396 0D3E                      l2388 0D26                      l1940 0F6E  
                    l1924 0F3D                      l1932 0F51                      l1908 0EFF  
                    l1916 0F24                      l1860 0E61                      l1844 0E3A  
                    l1852 0E4A                      l1836 0E2A                      l2492 02C2  
                    l2484 029E                      l2476 0213                      l2468 0193  
                    l1828 07A0                      l1588 0CE8                      l1596 07CA  
                    l2628 066C                      l2580 04C8                      l2572 0464  
                    l2564 03B2                      l2556 03A4                      l2548 0391  
                    l2636 0B63                      l1678 0BE2                      l2398 0D43  
                    l1950 0F8D                      l1934 0F55                      l1926 0F41  
                    l1918 0F2A                      l1870 0E75                      l1862 0E62  
                    l1854 0E52                      l1846 0E3F                      l1838 0E30  
                    l2494 02C3                      l2486 02A7                      l2478 0223  
                    l1598 07D1                      l2590 04FE                      l2582 04D4  
                    l2574 0488                      l2566 040B                      l2558 03A8  
                    l1960 0FD6                      l1952 0FA6                      l1944 0F76  
                    l1936 0F56                      l1928 0F42                      l1864 0E67  
                    l1872 0E77                      l1856 0E57                      l1848 0E47  
                    l2496 02CC                      l2488 02B5                      l2592 0504  
                    l2584 04E0                      l2576 0496                      l2568 0443  
                    l1970 0FEF                      l1962 0FDA                      l1946 0F7B  
                    l1954 0FAC                      l1938 0F5A                      l1890 0EC0  
                    l1874 0E87                      l1882 0EA0                      l1866 0E6C  
                    l1858 0E5D                      l2498 02D2                      l2594 0505  
                    l2586 04EC                      l2578 04BA                      l1964 0FE2  
                    l1956 0FB9                      l1948 0F89                      l1892 0EC8  
                    l1884 0EA5                      l1876 0E93                      l1868 0E74  
                    l2596 050A                      l2588 04F8                      l1966 0FE9  
                    l1958 0FC7                      l1894 0ED0                      l1878 0E97  
                    l1798 0745                      l2598 050E                      l1968 0FED  
                    l1896 0ED8                      l1888 0EAE                      l1898 0EDA  
                    STR_1 0810                      STR_2 0824                      STR_3 0824  
                    STR_4 0821                      STR_5 0821                      u2000 0EA5  
                    u2001 0EA4                      u2010 0EDF                      u2011 0EDE  
                    u2100 0F41                      u2101 0F40                      u3000 0D3E  
                    u2200 0FD6                      u2120 0F55                      u2040 0EF5  
                    u1400 0CB1                      u3001 0D3D                      u2201 0FD5  
                    u2121 0F54                      u2041 0EF4                      u2025 0EE1  
                    u1401 0CB0                      u2210 0FED                      u2130 0F5A  
                    u3010 0037                      u2211 0FEC                      u2131 0F59  
                    u2115 0F44                      u2035 0EEA                      u3011 0036  
                    u2140 0F6E                      u2060 0F11                      u3020 003D  
                    u1420 0CC3                      u1500 07E3                      u2205 0FD2  
                    u2141 0F6D                      u2061 0F10                      u3101 00F7  
                    u3021 003C                      u1421 0CC2                      u1501 07E2  
                    u2150 0F75                      u2070 0F2A                      u3102 00FE  
                    u3030 0042                      u2151 0F74                      u2071 0F29  
                    u2055 0EF8                      u3111 0123                      u3103 0105  
                    u3031 0041                      u1415 0CB5                      u2160 0F7B  
                    u2080 0F32                      u3200 025C                      u3112 012A  
                    u3040 0063                      u1440 0CD4                      u1520 07F6  
                    u2161 0F7A                      u2081 0F31                      u2065 0F0D  
                    u3121 013F                      u3113 0131                      u3041 0062  
                    u1441 0CD3                      u1521 07F5                      u1505 07DF  
                    u2170 0F8D                      u3122 0146                      u3050 0069  
                    u1610 0C92                      u2171 0F8C                      u3211 0268  
                    u3123 014D                      u3051 0068                      u1435 0CC4  
                    u1515 07EA                      u1611 0C91                      u2180 0F9C  
                    u3300 02EF                      u3220 0284                      u3212 026F  
                    u3060 006E                      u1460 0CE8                      u1620 0CA8  
                    u3301 02EE                      u3213 0276                      u3205 0257  
                    u3141 0175                      u3061 006D                      u1461 0CE7  
                    u1445 0CD0                      u1621 0CA7                      u1390 0C4A  
                    u2190 0FB9                      u3310 02F6                      u3142 017C  
                    u3070 0085                      u1470 07C7                      u1630 0BE1  
                    u1391 0C49                      u2191 0FB8                      u2095 0F36  
                    u3311 02F5                      u3231 0290                      u3151 01A2  
                    u3143 0183                      u3135 014F                      u3071 0084  
                    u1455 0CDC                      u1471 07C6                      u1631 0BE0  
                    u3320 02FC                      u3232 0297                      u3152 01A9  
                    u3080 008A                      u2600 0695                      u2185 0F97  
                    u3321 02FB                      u3233 029E                      u3225 027F  
                    u3153 01B0                      u3081 0089                      u2601 0694  
                    u3330 030E                      u2610 06B5                      u1490 07D9  
                    u2195 0FB5                      u3331 030D                      u3171 01D8  
                    u3091 00DB                      u2611 06B4                      u1491 07D8  
                    u3340 031D                      u3260 02C2                      u3172 01DF  
                    u3092 00E2                      u2700 0727                      u3261 02C1  
                    u3245 02A0                      u3181 0205                      u3173 01E6  
                    u3165 01B2                      u3093 00E9                      u1485 07CB  
                    u1590 0C07                      u3350 033A                      u3182 020C  
                    u1910 07B0                      u1830 0752                      u2710 0737  
                    u2630 06D6                      u1591 0C06                      u3351 0339  
                    u3255 02B7                      u3191 0232                      u3183 0213  
                    u1911 07AF                      u1831 0751                      u2711 0736  
                    u2631 06D5                      u3407 03A0                      u3360 0354  
                    u3280 02D6                      u3192 0239                      u1920 07B5  
                    u1840 0769                      u2720 073B                      u2800 0E1E  
                    u3361 0353                      u3345 0318                      u3281 02D5  
                    u3193 0240                      u1921 07B4                      u1905 07A2  
                    u2721 073A                      u2705 0722                      u2625 06C8  
                    u2801 0E1D                      u3417 04FC                      u1930 0E34  
                    u3370 0372                      u3290 02DB                      u1850 077F  
                    u2650 06F8                      u2810 0C0F                      u3427 0C3D  
                    u1931 0E33                      u3371 0371                      u3355 0336  
                    u3291 02DA                      u3275 02C5                      u1851 077E  
                    u2651 06F7                      u2811 0C0E                      u2900 0DA2  
                    u2820 0D4F                      u1940 0E3A                      u1860 0786  
                    u3380 03AE                      u3437 0C4F                      u2901 0DA1  
                    u2821 0D4E                      u1941 0E39                      u3365 0350  
                    u1861 0785                      u1845 0764                      u2645 06EA  
                    u3381 03AD                      u2910 0DA7                      u2830 0D5A  
                    u1950 0E3F                      u2750 0C67                      u2670 0708  
                    u2590 0691                      u3390 050A                      u3447 0B2D  
                    u2911 0DA6                      u2831 0D59                      u1951 0E3E  
                    u2751 0C66                      u2671 0707                      u2591 0690  
                    u3391 0509                      u2840 0D6B                      u2920 0CF4  
                    u1960 0E61                      u1880 0798                      u2680 070E  
                    u2841 0D6A                      u2921 0CF3                      u1961 0E60  
                    u1881 0797                      u2681 070D                      u2665 06FD  
                    u2930 0CFF                      u1970 0E67                      u2770 0C7B  
                    u1890 079F                      u2690 0712                      u2931 0CFE  
                    u1971 0E66                      u2771 0C7A                      u1891 079E  
                    u1875 0788                      u2691 0711                      u2860 0D7D  
                    u2940 0D0A                      u1980 0E6C                      u2780 0DD5  
                    u2861 0D7C                      u2941 0D09                      u1981 0E6B  
                    u2765 0C6E                      u2781 0DD4                      u1990 0E87  
                    u2790 0E07                      u2855 0D6F                      u1991 0E86  
                    u2791 0E06                      u2880 0D8E                      u2960 0D1C  
                    u2881 0D8D                      u2961 0D1B                      u2970 0D26  
                    u2875 0D7E                      u2971 0D25                      u2955 0D0E  
                    u2885 0D8A                      i1l46 0B76                      u2990 0D39  
                    u2895 0D96                      u2991 0D38                      u2975 0D22  
                    i1l49 0B7C                      u2985 0D2D              __CFG_WRT$OFF 0000  
                    _main 0B59                      _itoa 0C08                      btemp 007E  
                    _utoa 0DB1                      start 000C             __CFG_IESO$OFF 0000  
         ___fldiv@new_exp 0052        __size_of_LCD_ready 0029                     ??_ADC 005A  
                   ??_ISR 0070             ___fltol@sign1 0049                     ?_main 0070  
                   _ADC_A 0068                     _ADC_B 0060           __end_of___fldiv 1000  
                   ?_itoa 0029           __end_of___awdiv 0DB1             __CFG_WDTE$OFF 0000  
         __end_of___awmod 0D48           __end_of___flmul 0387           __end_of___fltol 07C1  
                   _ANSEL 0188                     ?_utoa 0020           ___awdiv@divisor 0072  
         __end_of___lwdiv 0CED           __end_of___lwmod 07FB           ___awdiv@counter 0020  
                   _RCREG 001A                     _PORTA 0005                     _PORTB 0006  
                   _PORTC 0007                     _PORTD 0008                     _PORTE 0009  
                   _TRISA 0085                     _TRISB 0086                     _TRISC 0087  
                   _TRISD 0088                     _TRISE 0089                     _TXREG 0019  
          __CFG_FCMEN$OFF 0000                     _setup 0BA2            __CFG_BOREN$OFF 0000  
                   pclath 000A                     utoa@c 0027                     utoa@v 0025  
                   status 0003                     wtemp0 007E            __CFG_MCLRE$OFF 0000  
         __initialization 000F              __end_of_main 0B6C              __end_of_itoa 0C2E  
            __end_of_utoa 0E23                    ??_main 007A                    ??_itoa 002D  
                  ??_utoa 0024                 ??_LCD_cmd 0074                 ??_LCD_lat 0072  
               ??_LCD_dwr 0074                 ??_LCD_msg 0077         __end_of_LCD_ready 0C57  
                  _ADRESH 001E          ___awdiv@dividend 0074                    ?_setup 0070  
                  _ANSELH 0189                    i1l1530 0B73                    i1l1526 0B6C  
                  i1l1528 0B72                    u137_20 0B72                    u137_21 0B71  
                  u138_20 0B7C                    u138_21 0B7B          __end_of___xxtofl 0745  
          __CFG_PWRTE$OFF 0000                 ??___fldiv 0048                 ??___awdiv 0076  
               ??___awmod 0077                 ??___flmul 002E                 ??___fltol 0044  
               ??___lwdiv 0076                 ??___lwmod 0076                    _inicio 0B83  
        ___awdiv@quotient 0022           ___awmod@divisor 0024           ___awmod@counter 0078  
                  _strcat 0C80                    _strcpy 0BC1        __size_of__Umul8_16 0029  
                  saved_w 007E              ___xxtofl@arg 0022              ___xxtofl@exp 0021  
            ___xxtofl@val 0072   __end_of__initialization 0022                ___fltol@f1 0040  
          __pcstackCOMMON 0070             __end_of_setup 0BC1                   ??_setup 0072  
              __pbssBANK0 005E                __pbssBANK1 00A0         __end_of__Umul8_16 0C80  
              __pmaintext 0B59                __pintentry 0004                   _ADC_1_A 006C  
                 _ADC_1_B 006A                   _ADC_2_A 0064                   _ADC_2_B 0062  
                 ?_inicio 0070                   _ARDUINO 00AA                   ?_strcat 0072  
                 ?_strcpy 0072                   _LCD_cmd 0B35                   _LCD_lat 0B26  
               ?___xxtofl 0072                   _LCD_dwr 0B47                   _LCD_msg 0BE2  
              __stringtab 0800                   ___fldiv 0E23                   ___awdiv 0D48  
                 ___awmod 0CED                   ___flmul 0026                   ___fltol 0745  
                 ___lwdiv 0CA9                   ___lwmod 07C1           __size_of_inicio 001F  
                 __ptext1 0BA2                   __ptext2 0B83                   __ptext3 0387  
                 __ptext4 0BC1                   __ptext5 0C80                   __ptext6 0C08  
                 __ptext7 0DB1                   __ptext8 07C1                   __ptext9 0CA9  
            __size_of_ADC 0302           __size_of_strcat 0029           __size_of_strcpy 0021  
            __size_of_ISR 0017                ??___xxtofl 0076          ___awmod@dividend 0026  
                 clrloop0 0B1F                   _voltage 00A4      end_of_initialization 0022  
               _LCD_ready 0C2E                   itoa@buf 002F                   itoa@val 0029  
             _ADCAA_CHARA 00BE               _ADCAB_CHARB 00B9               _ADCAC_CHARC 00B4  
                 utoa@buf 0028                   utoa@val 0020                 _PORTCbits 0007  
           ___xxtofl@sign 0020               ___fldiv@grs 0054               ___fldiv@rem 004D  
              ?_LCD_ready 0070               ___flmul@grs 0035                 _TXSTAbits 0098  
          __end_of_inicio 0BA2            __end_of_strcat 0CA9            __end_of_strcpy 0BE2  
     start_initialization 000F               __end_of_ADC 0689               __end_of_ISR 0B83  
__CFG_FOSC$INTRC_NOCLKOUT 0000                 __Umul8_16 0C57                  ??_inicio 0075  
                ??_strcat 0073                  ??_strcpy 0073                 ___fldiv@a 0040  
               ___fldiv@b 0044                  ?_LCD_cmd 0070                  ?_LCD_lat 0070  
                ?_LCD_dwr 0070                  ?_LCD_msg 0075                 ___flmul@a 002A  
               ___flmul@b 0026               __pbssCOMMON 007A                 ___latbits 0002  
           __pcstackBANK0 0020         __size_of___xxtofl 00BC                  LCD_cmd@x 0074  
                LCD_dwr@x 0074                  LCD_msg@c 0075               ??_LCD_ready 0072  
        ___lwdiv@dividend 0074                  ?___fldiv 0040                  ?___awdiv 0072  
                ?___awmod 0024                  ?___flmul 0026                  ?___fltol 0040  
              ?__Umul8_16 0072                  ?___lwdiv 0072                  ?___lwmod 0072  
               __pstrings 0800          ___lwdiv@quotient 0077            __size_of_setup 001F  
       interrupt_function 0004        _analogic_digital_a 007B        _analogic_digital_b 007A  
               clear_ram0 0B1E                  _PIR1bits 000C                  _POINTERA 00C3  
                _POINTERB 00AF                _ADCA_CHARA 00D2                _ADCB_CHARB 00CD  
              _ADCC_CHARC 00C8                _ADCON0bits 001F               __stringbase 080F  
              _ADCON1bits 009F          __size_of_LCD_cmd 0012          __size_of_LCD_lat 000F  
        __size_of_LCD_dwr 0012          __size_of_LCD_msg 0026               ??__Umul8_16 0074  
        __size_of___fldiv 01DD          __size_of___awdiv 0069          __size_of___awmod 005B  
        __size_of___flmul 0361          __size_of___fltol 007C          __size_of___lwdiv 0044  
        __size_of___lwmod 003A        __end_of__stringtab 0810                  ___xxtofl 0689  
              strcat@from 0072           ___lwdiv@divisor 0072           ___lwdiv@counter 0079  
                __ptext10 0689                  __ptext11 0745                  __ptext20 0C2E  
                __ptext12 0026                  __ptext21 0B26                  __ptext13 0C57  
                __ptext22 0B6C                  __ptext14 0E23                  __ptext15 0CED  
                __ptext16 0D48                  __ptext17 0BE2                  __ptext18 0B47  
                __ptext19 0B35         __CFG_BOR4V$BOR40V 0000                strcpy@from 0072  
           __size_of_main 0013             __size_of_itoa 0026             __size_of_utoa 0072  
                _voltageb 00A0                  itoa@base 002B                  intlevel1 0000  
        ___lwmod@dividend 0074                 stringcode 080A                _OSCCONbits 008F  
                utoa@base 0022    __Umul8_16@multiplicand 0072                  strcat@cp 0074  
                strcat@to 0075           ___lwmod@divisor 0072                  strcpy@cp 0074  
                strcpy@to 0075           ___lwmod@counter 0077                  stringdir 080A  
                stringtab 0800      __Umul8_16@multiplier 0024         __Umul8_16@product 0020  
